(lp0
(dp1
I720149885740195840
I720149885740195840
sI740828773646520320
I740828773646520320
sI700823222179135490
I700823222179135490
sI16343043
I16343043
sI751140613693775876
I751140613693775876
sI19899734
I19899734
sI726995546657824769
I726995546657824769
sI1406132232
I1406132232
sI39100425
I39100425
sI136361303
I136361303
sI24035341
I24035341
sI248864782
I248864782
sI1184237839
I1184237839
sI216900952
I216900952
sI518750226
I518750226
sI20094996
I20094996
sI20960882
I20960882
sI106274838
I106274838
sI2986106904
I2986106904
sI258973721
I258973721
sI42385494
I42385494
sI15078746
I15078746
sI694894442080239646
I694894442080239646
sI5753742
I5753742
sI15717184
I15717184
sI15147042
I15147042
sI108838948
I108838948
sI2934389425
I2934389425
sI283918376
I283918376
sI179281961
I179281961
sI7782442
I7782442
sI491036715
I491036715
sI32468665
I32468665
sI16228398
I16228398
sI77135919
I77135919
sI2348212272
I2348212272
sI3008946225
I3008946225
sI20807730
I20807730
sI1274110003
I1274110003
sI14098484
I14098484
sI1630896181
I1630896181
sI62816265
I62816265
sI3265634360
I3265634360
sI154288186
I154288186
sI46006331
I46006331
sI1873272024
I1873272024
sI3017732401
I3017732401
sI2830925887
I2830925887
sI2236457024
I2236457024
sI193978434
I193978434
sI161964099
I161964099
sI34775108
I34775108
sI240622262
I240622262
sI24061057
I24061057
sI302870540
I302870540
sI414273176
I414273176
sI7301572
I7301572
sI12512092
I12512092
sI5668942
I5668942
sI64991245
I64991245
sI92717138
I92717138
sI10457102
I10457102
sI963493974
I963493974
sI211258879
I211258879
sI34596196
I34596196
sI17690639
I17690639
sI19890268
I19890268
sI1706525774
I1706525774
sI3238983013
I3238983013
sI5546082
I5546082
sI22642788
I22642788
sI53248101
I53248101
sI16629777
I16629777
sI24024778
I24024778
sI28139625
I28139625
sI58120248
I58120248
sI17670252
I17670252
sI35094637
I35094637
sI93724784
I93724784
sI22832488
I22832488
sI73850142
I73850142
sI28475511
I28475511
sI17907832
I17907832
sI27082873
I27082873
sI1434787963
I1434787963
sI17481852
I17481852
sI51306621
I51306621
sI52699263
I52699263
sI365355137
I365355137
sI188973186
I188973186
sI25075734
I25075734
sI718631698385080320
I718631698385080320
sI50778188
I50778188
sI14131336
I14131336
sI304054410
I304054410
sI212856855
I212856855
sI341310251
I341310251
sI322371726
I322371726
sI246695277
I246695277
sI21848211
I21848211
sI14049429
I14049429
sI305971350
I305971350
sI15153860
I15153860
sI23863450
I23863450
sI2349539484
I2349539484
sI133918746
I133918746
sI19324737
I19324737
sI4620451
I4620451
sI1709400228
I1709400228
sI254257862
I254257862
sI36479143
I36479143
sI87818409
I87818409
sI2200535210
I2200535210
sI2871909063
I2871909063
sI565035181
I565035181
sI18792622
I18792622
sI389660847
I389660847
sI1088363208
I1088363208
sI14467251
I14467251
sI30515095
I30515095
sI270164149
I270164149
sI390832310
I390832310
sI41402551
I41402551
sI65495224
I65495224
sI24109242
I24109242
sI24756413
I24756413
sI359646581
I359646581
sI18391232
I18391232
sI4037714113
I4037714113
sI357908674
I357908674
sI204832963
I204832963
sI2262299714
I2262299714
sI327636342
I327636342
sI7313362
I7313362
sI2384071
I2384071
sI115302600
I115302600
sI98476236
I98476236
sI335331533
I335331533
sI17596622
I17596622
sI248976249
I248976249
sI165511377
I165511377
sI2307899604
I2307899604
sI1087496406
I1087496406
sI283001047
I283001047
sI184910040
I184910040
sI1856102617
I1856102617
sI19087579
I19087579
sI43204828
I43204828
sI3242508510
I3242508510
sI17137891
I17137891
sI17735909
I17735909
sI15130854
I15130854
sI562381032
I562381032
sI61604073
I61604073
sI855515370
I855515370
sI175198947
I175198947
sI115466478
I115466478
sI14082088
I14082088
sI746531539
I746531539
sI326031856
I326031856
sI545235190
I545235190
sI18333737
I18333737
sI198672699
I198672699
sI142975227
I142975227
sI25092348
I25092348
sI48439549
I48439549
sI41509118
I41509118
sI16420152
I16420152
sI82706688
I82706688
sI2883841
I2883841
sI234856706
I234856706
sI302162179
I302162179
sI393617669
I393617669
sI756568465528332288
I756568465528332288
sI608449921
I608449921
sI264003851
I264003851
sI599474445
I599474445
sI835166479
I835166479
sI159844986
I159844986
sI14647570
I14647570
sI424482614
I424482614
sI160702741
I160702741
sI444940567
I444940567
sI271114521
I271114521
sI2450579738
I2450579738
sI14561327
I14561327
sI15201143
I15201143
sI192477914
I192477914
sI159875784
I159875784
sI67625250
I67625250
sI37060788
I37060788
sI22799750
I22799750
sI312336678
I312336678
sI18829708
I18829708
sI50118956
I50118956
sI802078770
I802078770
sI153583919
I153583919
sI37101874
I37101874
sI50257971
I50257971
sI285725786
I285725786
sI19734837
I19734837
sI120176950
I120176950
sI3000254775
I3000254775
sI506364218
I506364218
sI61661499
I61661499
sI2425151
I2425151
sI110346561
I110346561
sI713851202
I713851202
sI51863875
I51863875
sI16580932
I16580932
sI12927302
I12927302
sI2707847905
I2707847905
sI41697608
I41697608
sI14079471
I14079471
sI535773514
I535773514
sI49275211
I49275211
sI26706252
I26706252
sI31310158
I31310158
sI38237581
I38237581
sI38527312
I38527312
sI122454354
I122454354
sI355615059
I355615059
sI2472920462
I2472920462
sI67358777
I67358777
sI19915096
I19915096
sI565043545
I565043545
sI241163985
I241163985
sI16228699
I16228699
sI26657119
I26657119
sI222953824
I222953824
sI18777269
I18777269
sI2892492162
I2892492162
sI18211173
I18211173
sI6160742
I6160742
sI76518929
I76518929
sI2762760557
I2762760557
sI19320154
I19320154
sI275366255
I275366255
sI170099056
I170099056
sI351773041
I351773041
sI28287346
I28287346
sI43450739
I43450739
sI739844468
I739844468
sI426233918
I426233918
sI290890104
I290890104
sI40280441
I40280441
sI1012072826
I1012072826
sI483205183
I483205183
sI24591732
I24591732
sI379028519
I379028519
sI57532801
I57532801
sI55402885
I55402885
sI783758022208139264
I783758022208139264
sI25584007
I25584007
sI868551404
I868551404
sI8053132
I8053132
sI54395277
I54395277
sI14098831
I14098831
sI300482960
I300482960
sI18252177
I18252177
sI17473941
I17473941
sI491962774
I491962774
sI34562455
I34562455
sI15446084
I15446084
sI18220249
I18220249
sI19816859
I19816859
sI354582942
I354582942
sI33898911
I33898911
sI28778912
I28778912
sI5683952
I5683952
sI2867847587
I2867847587
sI707134963968126977
I707134963968126977
sI12480582
I12480582
sI3697732337
I3697732337
sI32433037
I32433037
sI39780778
I39780778
sI26644551
I26644551
sI23175596
I23175596
sI33685933
I33685933
sI41935278
I41935278
sI7799412
I7799412
sI2232353202
I2232353202
sI29663668
I29663668
sI232235048
I232235048
sI1950327224
I1950327224
sI93757881
I93757881
sI14107067
I14107067
sI64614474
I64614474
sI382386622
I382386622
sI159203775
I159203775
sI618570176
I618570176
sI3287759598
I3287759598
sI318115915
I318115915
sI22957295
I22957295
sI18170310
I18170310
sI688583
I688583
sI235373000
I235373000
sI17736137
I17736137
sI827843018
I827843018
sI71744247
I71744247
sI314450380
I314450380
sI141019459
I141019459
sI3305538000
I3305538000
sI121588717
I121588717
sI116367826
I116367826
sI85426644
I85426644
sI15499734
I15499734
sI50192855
I50192855
sI2675925464
I2675925464
sI15991258
I15991258
sI2740095738
I2740095738
sI25092574
I25092574
sI298303968
I298303968
sI96446746
I96446746
sI178096891
I178096891
sI617339216
I617339216
sI111378920
I111378920
sI57614826
I57614826
sI28533228
I28533228
sI206529005
I206529005
sI19918323
I19918323
sI93946353
I93946353
sI44442099
I44442099
sI321847797
I321847797
sI108806652
I108806652
sI588579325
I588579325
sI304252363
I304252363
sI790951790049198080
I790951790049198080
sI128439723
I128439723
sI17482244
I17482244
sI620597334
I620597334
sI21815815
I21815815
sI23626248
I23626248
sI735265290
I735265290
sI15638615
I15638615
sI27091468
I27091468
sI21414413
I21414413
sI3153437198
I3153437198
sI20177423
I20177423
sI10830352
I10830352
sI15868433
I15868433
sI568825492
I568825492
sI901651
I901651
sI533529109
I533529109
sI325861911
I325861911
sI226376452
I226376452
sI13451802
I13451802
sI168264219
I168264219
sI20267548
I20267548
sI1282228765
I1282228765
sI75971977
I75971977
sI286143567
I286143567
sI63296944
I63296944
sI525206050
I525206050
sI15667291
I15667291
sI20242981
I20242981
sI17883689
I17883689
sI16216939
I16216939
sI44196397
I44196397
sI4432431
I4432431
sI23749168
I23749168
sI331254536
I331254536
sI19376905
I19376905
sI29147705
I29147705
sI5743162
I5743162
sI26436155
I26436155
sI141460028
I141460028
sI22708797
I22708797
sI77042233
I77042233
sI35415477
I35415477
sI29131330
I29131330
sI33964618
I33964618
sI15049291
I15049291
sI505299532
I505299532
sI17801805
I17801805
sI15893073
I15893073
sI987832914
I987832914
sI15499859
I15499859
sI514622037
I514622037
sI81994326
I81994326
sI57409636
I57409636
sI333177434
I333177434
sI466936412
I466936412
sI1848984157
I1848984157
sI24622734
I24622734
sI937386085
I937386085
sI1615839842
I1615839842
sI18367075
I18367075
sI62620260
I62620260
sI14061670
I14061670
sI51241574
I51241574
sI822052428556083200
I822052428556083200
sI332890728
I332890728
sI882846482
I882846482
sI2933899886
I2933899886
sI16199143
I16199143
sI1121775720
I1121775720
sI263996020
I263996020
sI83214967
I83214967
sI2940195668
I2940195668
sI16638585
I16638585
sI358482555
I358482555
sI571146876
I571146876
sI260022378
I260022378
sI28172926
I28172926
sI16974463
I16974463
sI6185602
I6185602
sI9085572
I9085572
sI34538118
I34538118
sI253207175
I253207175
sI26976905
I26976905
sI1434251
I1434251
sI15508108
I15508108
sI71156366
I71156366
sI2811749007
I2811749007
sI86961179
I86961179
sI15162136
I15162136
sI24838803
I24838803
sI525869716
I525869716
sI15446126
I15446126
sI21248793
I21248793
sI66561957
I66561957
sI19219098
I19219098
sI17539739
I17539739
sI2321985102
I2321985102
sI787102
I787102
sI33481375
I33481375
sI314469775
I314469775
sI114761840
I114761840
sI116318883
I116318883
sI743604900
I743604900
sI15008424
I15008424
sI33014441
I33014441
sI541197767
I541197767
sI425583276
I425583276
sI14885549
I14885549
sI16089776
I16089776
sI59676104
I59676104
sI36683668
I36683668
sI5120691
I5120691
sI530825909
I530825909
sI7283382
I7283382
sI140499486
I140499486
sI61592079
I61592079
sI441336506
I441336506
sI86983357
I86983357
sI15360702
I15360702
sI81011391
I81011391
sI35871470
I35871470
sI1355449026
I1355449026
sI324838083
I324838083
sI14090948
I14090948
sI39279393
I39279393
sI7744592
I7744592
sI33678026
I33678026
sI29205195
I29205195
sI20562637
I20562637
sI82833479
I82833479
sI15229048
I15229048
sI29450962
I29450962
sI23962323
I23962323
sI34513620
I34513620
sI24232662
I24232662
sI16245465
I16245465
sI128049882
I128049882
sI1007010524
I1007010524
sI78258913
I78258913
sI250831586
I250831586
sI457343099
I457343099
sI426115813
I426115813
sI17179368
I17179368
sI496458349
I496458349
sI46932715
I46932715
sI7717612
I7717612
sI21819517
I21819517
sI137601776
I137601776
sI52495092
I52495092
sI28533493
I28533493
sI63578870
I63578870
sI358870251
I358870251
sI448240078
I448240078
sI513770233
I513770233
sI416514810
I416514810
sI15375681
I15375681
sI247882492
I247882492
sI29788970
I29788970
sI18714270
I18714270
sI259875583
I259875583
sI3278275328
I3278275328
sI381977345
I381977345
sI55823384
I55823384
sI106863403
I106863403
sI357442308
I357442308
sI709821577815154688
I709821577815154688
sI23462663
I23462663
sI76817162
I76817162
sI106837463
I106837463
sI568852233
I568852233
sI18252557
I18252557
sI469750617
I469750617
sI587131866
I587131866
sI8374722
I8374722
sI27190033
I27190033
sI25068332
I25068332
sI833938195
I833938195
sI23544596
I23544596
sI297624341
I297624341
sI110445334
I110445334
sI228541208
I228541208
sI40198937
I40198937
sI14656282
I14656282
sI928490268
I928490268
sI33325853
I33325853
sI114000670
I114000670
sI819999
I819999
sI16661296
I16661296
sI14934818
I14934818
sI1917731
I1917731
sI178118466
I178118466
sI46064516
I46064516
sI571177777
I571177777
sI488620840
I488620840
sI383083307
I383083307
sI374768428
I374768428
sI50848558
I50848558
sI273552883
I273552883
sI56959792
I56959792
sI81240882
I81240882
sI314876724
I314876724
sI274137911
I274137911
sI365282104
I365282104
sI153586484
I153586484
sI14062180
I14062180
sI28812091
I28812091
sI80937788
I80937788
sI35019632
I35019632
sI366175040
I366175040
sI30278465
I30278465
sI19350341
I19350341
sI755935838081548288
I755935838081548288
sI71795841
I71795841
sI182559562
I182559562
sI1263373111
I1263373111
sI515867468
I515867468
sI17810254
I17810254
sI18965327
I18965327
sI19759953
I19759953
sI18822627
I18822627
sI12403542
I12403542
sI155845463
I155845463
sI15950681
I15950681
sI1149735055
I1149735055
sI28706024
I28706024
sI112526174
I112526174
sI81011551
I81011551
sI15647676
I15647676
sI15764283
I15764283
sI25387876
I25387876
sI18334565
I18334565
sI485036177
I485036177
sI307733353
I307733353
sI15893354
I15893354
sI17851248
I17851248
sI19366770
I19366770
sI14651539
I14651539
sI1487070068
I1487070068
sI19376958
I19376958
sI9692022
I9692022
sI100451817
I100451817
sI188621689
I188621689
sI478397306
I478397306
sI15491964
I15491964
sI27050877
I27050877
sI37127041
I37127041
sI2303959938
I2303959938
sI455304067
I455304067
sI30278532
I30278532
sI1435091845
I1435091845
sI63701894
I63701894
sI42953537
I42953537
sI9290632
I9290632
sI14130408
I14130408
sI90599711
I90599711
sI18300375
I18300375
sI73147282
I73147282
sI60200677
I60200677
sI29795220
I29795220
sI2735109614
I2735109614
sI992151
I992151
sI742491032
I742491032
sI248884036
I248884036
sI38077338
I38077338
sI17007515
I17007515
sI330548125
I330548125
sI15172510
I15172510
sI58632588
I58632588
sI15975328
I15975328
sI524747681
I524747681
sI16016290
I16016290
sI822215673812119553
I822215673812119553
sI16190278
I16190278
sI128328620
I128328620
sI47506350
I47506350
sI289431709
I289431709
sI235316144
I235316144
sI206005170
I206005170
sI19789299
I19789299
sI3222700981
I3222700981
sI278012854
I278012854
sI15901623
I15901623
sI849851306
I849851306
sI2302592184
I2302592184
sI39601084
I39601084
sI235322186
I235322186
sI499598270
I499598270
sI16573941
I16573941
sI346450763
I346450763
sI107193285
I107193285
sI33971020
I33971020
sI16647115
I16647115
sI284050380
I284050380
sI26177698
I26177698
sI24290254
I24290254
sI168801128
I168801128
sI6753582
I6753582
sI195994580
I195994580
sI190292949
I190292949
sI165503959
I165503959
sI30401496
I30401496
sI43811802
I43811802
sI17214287
I17214287
sI2864702428
I2864702428
sI124245498
I124245498
sI2167235550
I2167235550
sI19915743
I19915743
sI979352286
I979352286
sI16180194
I16180194
sI16581604
I16581604
sI370004134
I370004134
sI117662694
I117662694
sI15639527
I15639527
sI1152296444
I1152296444
sI42968043
I42968043
sI1099203565
I1099203565
sI463373294
I463373294
sI111010799
I111010799
sI14353392
I14353392
sI209421297
I209421297
sI581469170
I581469170
sI15926259
I15926259
sI35890166
I35890166
sI2464752631
I2464752631
sI10373972
I10373972
sI50242555
I50242555
sI26387452
I26387452
sI16715946
I16715946
sI275710974
I275710974
sI13018112
I13018112
sI40288427
I40288427
sI14140420
I14140420
sI387859461
I387859461
sI12133382
I12133382
sI1681720327
I1681720327
sI20087821
I20087821
sI1674978318
I1674978318
sI31273133
I31273133
sI18170896
I18170896
sI332047377
I332047377
sI57574418
I57574418
sI139441059
I139441059
sI199525396
I199525396
sI15265966
I15265966
sI16671767
I16671767
sI405251096
I405251096
sI18261020
I18261020
sI407249951
I407249951
sI169198625
I169198625
sI65987618
I65987618
sI66046811
I66046811
sI48440359
I48440359
sI18826280
I18826280
sI805276508
I805276508
sI16016427
I16016427
sI1433250942
I1433250942
sI48203749
I48203749
sI16213040
I16213040
sI445432881
I445432881
sI22864948
I22864948
sI68070314
I68070314
sI707013562493853696
I707013562493853696
sI391013432
I391013432
sI22357049
I22357049
sI620618811
I620618811
sI34547210
I34547210
sI16245822
I16245822
sI15524929
I15524929
sI1058520120
I1058520120
sI36168772
I36168772
sI15328325
I15328325
sI20437286
I20437286
sI15361095
I15361095
sI18736652
I18736652
sI32542903
I32542903
sI154092620
I154092620
sI172485474
I172485474
sI1407147020
I1407147020
sI1326395576
I1326395576
sI23405650
I23405650
sI16409683
I16409683
sI82804415
I82804415
sI241318875
I241318875
sI19571800
I19571800
sI19897188
I19897188
sI97739866
I97739866
sI23839835
I23839835
sI385164383
I385164383
sI23684193
I23684193
sI20644963
I20644963
sI388908133
I388908133
sI28140646
I28140646
sI30119441
I30119441
sI557302888
I557302888
sI14605159
I14605159
sI373804719
I373804719
sI129631342
I129631342
sI212639933
I212639933
sI52847728
I52847728
sI16598129
I16598129
sI20259954
I20259954
sI32334963
I32334963
sI336888948
I336888948
sI5763262
I5763262
sI451191926
I451191926
sI42157175
I42157175
sI300893304
I300893304
sI210219199
I210219199
sI18498684
I18498684
sI19784831
I19784831
sI14378113
I14378113
sI14173315
I14173315
sI709244438
I709244438
sI717779302540939264
I717779302540939264
sI15197321
I15197321
sI19916163
I19916163
sI3342786754
I3342786754
sI2446713998
I2446713998
sI1000591
I1000591
sI15634296
I15634296
sI25035923
I25035923
sI386844112
I386844112
sI58582165
I58582165
sI28300825
I28300825
sI130466968
I130466968
sI2251199965
I2251199965
sI1043629212
I1043629212
sI130991261
I130991261
sI24076097
I24076097
sI15066271
I15066271
sI15164565
I15164565
sI343366512
I343366512
sI2884771
I2884771
sI20792486
I20792486
sI533711729
I533711729
sI14624284
I14624284
sI10437802
I10437802
sI23539911
I23539911
sI17573036
I17573036
sI98706605
I98706605
sI1317381296
I1317381296
sI517963976
I517963976
sI7005362
I7005362
sI109937844
I109937844
sI16409781
I16409781
sI282805430
I282805430
sI93537463
I93537463
sI30704824
I30704824
sI15175304
I15175304
sI447554747
I447554747
sI93258940
I93258940
sI419710142
I419710142
sI116663487
I116663487
sI542926018
I542926018
sI34473156
I34473156
sI66561221
I66561221
sI188662372
I188662372
sI30900428
I30900428
sI10880202
I10880202
sI1950147788
I1950147788
sI743203479330512897
I743203479330512897
sI138372303
I138372303
sI151217360
I151217360
sI50283729
I50283729
sI19719380
I19719380
sI599670990
I599670990
sI24569047
I24569047
sI2717254872
I2717254872
sI18113753
I18113753
sI498468058
I498468058
sI628396239
I628396239
sI87786716
I87786716
sI15877341
I15877341
sI25027806
I25027806
sI19932383
I19932383
sI35931363
I35931363
sI11388132
I11388132
sI15119910
I15119910
sI24855782
I24855782
sI31646951
I31646951
sI13288642
I13288642
sI14080892
I14080892
sI289580266
I289580266
sI52856359
I52856359
sI188687596
I188687596
sI2533798098
I2533798098
sI21218542
I21218542
sI170673391
I170673391
sI19375344
I19375344
sI31606001
I31606001
sI2295211250
I2295211250
sI118836094
I118836094
sI19621110
I19621110
sI369796343
I369796343
sI874374392
I874374392
sI69084409
I69084409
sI248104187
I248104187
sI285205622
I285205622
sI994788608
I994788608
sI45565185
I45565185
sI153966123
I153966123
sI39308549
I39308549
sI822215679726100480
I822215679726100480
sI15492359
I15492359
sI113460489
I113460489
sI164898058
I164898058
sI492646615
I492646615
sI624897703
I624897703
sI17793878
I17793878
sI29730065
I29730065
sI25554855
I25554855
sI10937622
I10937622
sI15698507
I15698507
sI56321307
I56321307
sI2779709006
I2779709006
sI19260702
I19260702
sI2839430431
I2839430431
sI1561175600
I1561175600
sI9864482
I9864482
sI62911603
I62911603
sI742534503239819265
I742534503239819265
sI3282781478
I3282781478
sI2723604017
I2723604017
sI2848946938
I2848946938
sI852436267
I852436267
sI40109360
I40109360
sI17638706
I17638706
sI468583731
I468583731
sI266315980
I266315980
sI1361413429
I1361413429
sI22938308
I22938308
sI32556343
I32556343
sI80110904
I80110904
sI14804281
I14804281
sI34039100
I34039100
sI27780413
I27780413
sI14615871
I14615871
sI30008641
I30008641
sI28028994
I28028994
sI17220934
I17220934
sI301827399
I301827399
sI43464393
I43464393
sI25503051
I25503051
sI128263500
I128263500
sI1544013134
I1544013134
sI19883344
I19883344
sI335455570
I335455570
sI20096340
I20096340
sI10424702
I10424702
sI30344534
I30344534
sI2846041432
I2846041432
sI275621209
I275621209
sI93711247
I93711247
sI17573212
I17573212
sI142075230
I142075230
sI45925727
I45925727
sI331803536
I331803536
sI35615783
I35615783
sI23995748
I23995748
sI234521957
I234521957
sI5694822
I5694822
sI33998183
I33998183
sI1120241000
I1120241000
sI47555945
I47555945
sI46589291
I46589291
sI14101003
I14101003
sI414377325
I414377325
sI289154416
I289154416
sI33998194
I33998194
sI7808372
I7808372
sI106841461
I106841461
sI2993513846
I2993513846
sI191717609
I191717609
sI356631933
I356631933
sI209585534
I209585534
sI42300159
I42300159
sI41543040
I41543040
sI22492736
I22492736
sI33015170
I33015170
sI280716675
I280716675
sI766873309367545856
I766873309367545856
sI109233543
I109233543
sI35120520
I35120520
sI1576469898
I1576469898
sI2654979468
I2654979468
sI103774005
I103774005
sI21783950
I21783950
sI5548952
I5548952
sI19678610
I19678610
sI48152163
I48152163
sI18662804
I18662804
sI22487278
I22487278
sI20710809
I20710809
sI1408727533
I1408727533
sI72738208
I72738208
sI20735393
I20735393
sI19199558
I19199558
sI51233515
I51233515
sI171197865
I171197865
sI18791763
I18791763
sI32945084
I32945084
sI17073580
I17073580
sI79127983
I79127983
sI91043295
I91043295
sI9676212
I9676212
sI19686837
I19686837
sI1344951
I1344951
sI1474373048
I1474373048
sI124003770
I124003770
sI24101109
I24101109
sI451151298
I451151298
sI46127300
I46127300
sI104637893
I104637893
sI393061830
I393061830
sI602170823
I602170823
sI602317143
I602317143
sI9360972
I9360972
sI38519123
I38519123
sI374764471
I374764471
sI17824922
I17824922
sI3140830512
I3140830512
sI198682064
I198682064
sI21792210
I21792210
sI26510803
I26510803
sI22832597
I22832597
sI15705560
I15705560
sI3306497497
I3306497497
sI74712538
I74712538
sI53429839
I53429839
sI30918108
I30918108
sI16827869
I16827869
sI15705567
I15705567
sI20104672
I20104672
sI2296833505
I2296833505
sI1497794018
I1497794018
sI74286565
I74286565
sI15189585
I15189585
sI82303907
I82303907
sI2907476220
I2907476220
sI20809194
I20809194
sI20342251
I20342251
sI229973872
I229973872
sI32359921
I32359921
sI16205298
I16205298
sI88540659
I88540659
sI1339835893
I1339835893
sI24815094
I24815094
sI14120802
I14120802
sI1104635388
I1104635388
sI66299389
I66299389
sI7202302
I7202302
sI52394503
I52394503
sI59173803
I59173803
sI354158084
I354158084
sI136553991
I136553991
sI139255254
I139255254
sI131500972
I131500972
sI6047242
I6047242
sI168584715
I168584715
sI23922188
I23922188
sI586032653
I586032653
sI579301575
I579301575
sI7831092
I7831092
sI2713962001
I2713962001
sI735437059
I735437059
sI42927636
I42927636
sI499361301
I499361301
sI602801689
I602801689
sI27151187
I27151187
sI67108656
I67108656
sI279283228
I279283228
sI22537758
I22537758
sI25478689
I25478689
sI188884514
I188884514
sI19834403
I19834403
sI47539748
I47539748
sI499273990
I499273990
sI608667174
I608667174
sI278808103
I278808103
sI15386204
I15386204
sI138626602
I138626602
sI101597447
I101597447
sI10454572
I10454572
sI10746802
I10746802
sI24323631
I24323631
sI209856048
I209856048
sI193152561
I193152561
sI82822707
I82822707
sI400320052
I400320052
sI14592008
I14592008
sI87279159
I87279159
sI5695032
I5695032
sI18064953
I18064953
sI549021244
I549021244
sI85960253
I85960253
sI732186174
I732186174
sI50292966
I50292966
sI2376996638
I2376996638
sI22876427
I22876427
sI59688517
I59688517
sI50322352
I50322352
sI15926855
I15926855
sI41715272
I41715272
sI325830217
I325830217
sI2287923469
I2287923469
sI1952704080
I1952704080
sI2557521
I2557521
sI250009869
I250009869
sI84351228
I84351228
sI26642006
I26642006
sI39585367
I39585367
sI2568570456
I2568570456
sI820828
I820828
sI106792541
I106792541
sI179660382
I179660382
sI17057376
I17057376
sI163382886
I163382886
sI203941479
I203941479
sI68006373
I68006373
sI265627244
I265627244
sI3033851503
I3033851503
sI21341809
I21341809
sI17139314
I17139314
sI14132853
I14132853
sI205407862
I205407862
sI11887632
I11887632
sI17270393
I17270393
sI201074298
I201074298
sI752264828
I752264828
sI20661885
I20661885
sI400172670
I400172670
sI1177511551
I1177511551
sI45950592
I45950592
sI48801409
I48801409
sI37570179
I37570179
sI34768516
I34768516
sI20219525
I20219525
sI16344710
I16344710
sI22956993
I22956993
sI2546853512
I2546853512
sI75974281
I75974281
sI249966871
I249966871
sI2295375500
I2295375500
sI16156302
I16156302
sI45535096
I45535096
sI30205586
I30205586
sI366341059
I366341059
sI20089670
I20089670
sI1649288443
I1649288443
sI2236556952
I2236556952
sI23864985
I23864985
sI39224987
I39224987
sI475260572
I475260572
sI1873749661
I1873749661
sI15025822
I15025822
sI15143305
I15143305
sI40892016
I40892016
sI18228898
I18228898
sI56952483
I56952483
sI2660178723
I2660178723
sI2923153062
I2923153062
sI334366321
I334366321
sI16164520
I16164520
sI268895913
I268895913
sI32955335
I32955335
sI18825537
I18825537
sI297768562
I297768562
sI48162479
I48162479
sI12371632
I12371632
sI219580083
I219580083
sI1180681909
I1180681909
sI201156279
I201156279
sI734242488
I734242488
sI130860729
I130860729
sI150963899
I150963899
sI8226492
I8226492
sI2970543806
I2970543806
sI29789545
I29789545
sI3587027232
I3587027232
sI150841026
I150841026
sI113138635
I113138635
sI5777092
I5777092
sI14067452
I14067452
sI1207060166
I1207060166
sI40354685
I40354685
sI70884300
I70884300
sI15624222
I15624222
sI27616971
I27616971
sI622192332
I622192332
sI903022285
I903022285
sI551522513
I551522513
sI178693840
I178693840
sI2377959121
I2377959121
sI10798802
I10798802
sI478897877
I478897877
sI69420759
I69420759
sI14730969
I14730969
sI9946842
I9946842
sI42549334
I42549334
sI2844747486
I2844747486
sI152028895
I152028895
sI12576482
I12576482
sI25155195
I25155195
sI366471407
I366471407
sI14074150
I14074150
sI47702326
I47702326
sI42460844
I42460844
sI18114283
I18114283
sI19752684
I19752684
sI17820668
I17820668
sI488040176
I488040176
sI2506508017
I2506508017
sI24921845
I24921845
sI19638006
I19638006
sI110396781
I110396781
sI3179538169
I3179538169
sI108209914
I108209914
sI7309052
I7309052
sI49702654
I49702654
sI148882869
I148882869
sI35366656
I35366656
sI172992257
I172992257
sI2181793538
I2181793538
sI17794819
I17794819
sI19539716
I19539716
sI316664556
I316664556
sI2400773894
I2400773894
sI21973510
I21973510
sI27616562
I27616562
sI319874829
I319874829
sI969312014
I969312014
sI1261176594
I1261176594
sI97510263
I97510263
sI2600437524
I2600437524
sI355321621
I355321621
sI88114969
I88114969
sI45778714
I45778714
sI120578351
I120578351
sI466831132
I466831132
sI44640029
I44640029
sI1305940272
I1305940272
sI361531171
I361531171
sI2361771812
I2361771812
sI43419270
I43419270
sI50374439
I50374439
sI1345029931
I1345029931
sI34973485
I34973485
sI227837742
I227837742
sI1967867695
I1967867695
sI633286963
I633286963
sI334924766
I334924766
sI64456502
I64456502
sI42665784
I42665784
sI772559156
I772559156
sI2354525834
I2354525834
sI84633406
I84633406
sI25665845
I25665845
sI19918353
I19918353
sI38725441
I38725441
sI13371202
I13371202
sI1435461
I1435461
sI62342982
I62342982
sI48097096
I48097096
sI155590967
I155590967
sI24962893
I24962893
sI304070008
I304070008
sI155002704
I155002704
sI235308881
I235308881
sI479061842
I479061842
sI278832980
I278832980
sI912197262
I912197262
sI139937625
I139937625
sI287950683
I287950683
sI180867191
I180867191
sI121849694
I121849694
sI488016444
I488016444
sI2649827168
I2649827168
sI63885099
I63885099
sI38086499
I38086499
sI17663846
I17663846
sI20399761
I20399761
sI44492648
I44492648
sI17794923
I17794923
sI26822508
I26822508
sI41268882
I41268882
sI29599598
I29599598
sI17663856
I17663856
sI66546664
I66546664
sI30738290
I30738290
sI377612148
I377612148
sI9867582
I9867582
sI19777398
I19777398
sI2193082231
I2193082231
sI15128212
I15128212
sI244158421
I244158421
sI97388411
I97388411
sI76146557
I76146557
sI16656254
I16656254
sI27714809
I27714809
sI16074627
I16074627
sI279390084
I279390084
sI16148357
I16148357
sI14505838
I14505838
sI3499911
I3499911
sI732325771
I732325771
sI28149644
I28149644
sI21440398
I21440398
sI487205869
I487205869
sI72685208
I72685208
sI21360963
I21360963
sI167561109
I167561109
sI20416406
I20416406
sI89084561
I89084561
sI20785051
I20785051
sI19326876
I19326876
sI56436638
I56436638
sI2604747277
I2604747277
sI31680416
I31680416
sI19687330
I19687330
sI34442404
I34442404
sI38758309
I38758309
sI979281835
I979281835
sI119211950
I119211950
sI605927069
I605927069
sI240502704
I240502704
sI1548158070
I1548158070
sI10847902
I10847902
sI90136957
I90136957
sI64014264
I64014264
sI325430701
I325430701
sI211773370
I211773370
sI15177086
I15177086
sI2506674506
I2506674506
sI14875637
I14875637
sI15361984
I15361984
sI71673795
I71673795
sI454313925
I454313925
sI4741930520
I4741930520
sI14116807
I14116807
sI22940219
I22940219
sI1426561476
I1426561476
sI2467791
I2467791
sI8161232
I8161232
sI778111754895257601
I778111754895257601
sI135251922
I135251922
sI19912372
I19912372
sI46057428
I46057428
sI401052290
I401052290
sI18081751
I18081751
sI25847768
I25847768
sI386328537
I386328537
sI13083112
I13083112
sI254710095
I254710095
sI21899593
I21899593
sI18302822
I18302822
sI15878114
I15878114
sI3532083314
I3532083314
sI3353774054
I3353774054
sI521382908
I521382908
sI2820573162
I2820573162
sI91195372
I91195372
sI15730669
I15730669
sI98584559
I98584559
sI216213490
I216213490
sI24318291
I24318291
sI77064180
I77064180
sI2608809973
I2608809973
sI19231508
I19231508
sI32819191
I32819191
sI1170655224
I1170655224
sI85324530
I85324530
sI5654522
I5654522
sI2317351705
I2317351705
sI593893034
I593893034
sI212789246
I212789246
sI193432576
I193432576
sI17824870
I17824870
sI241602713
I241602713
sI28174342
I28174342
sI39626759
I39626759
sI21284872
I21284872
sI175622153
I175622153
sI19195914
I19195914
sI20265900
I20265900
sI25762818
I25762818
sI16574479
I16574479
sI248965136
I248965136
sI205948945
I205948945
sI176564242
I176564242
sI395659283
I395659283
sI26123789
I26123789
sI120915989
I120915989
sI106484057
I106484057
sI52275224
I52275224
sI408176666
I408176666
sI221185711
I221185711
sI19357262
I19357262
sI2209966110
I2209966110
sI2619254448
I2619254448
sI17243913
I17243913
sI1216845944
I1216845944
sI119203877
I119203877
sI887512177
I887512177
sI5998632
I5998632
sI131980295
I131980295
sI19877186
I19877186
sI72734386
I72734386
sI15607854
I15607854
sI2462473224
I2462473224
sI29042739
I29042739
sI15566901
I15566901
sI17696823
I17696823
sI15100219
I15100219
sI175949882
I175949882
sI21407806
I21407806
sI301146464
I301146464
sI126183490
I126183490
sI16017475
I16017475
sI303687748
I303687748
sI601245766
I601245766
sI14147937
I14147937
sI276285512
I276285512
sI3063687241
I3063687241
sI1232840778
I1232840778
sI16402507
I16402507
sI226322508
I226322508
sI14428239
I14428239
sI253747552
I253747552
sI19851346
I19851346
sI40989027
I40989027
sI17008726
I17008726
sI19671129
I19671129
sI16189530
I16189530
sI61197392
I61197392
sI476481630
I476481630
sI1652836448
I1652836448
sI20744289
I20744289
sI1309133443
I1309133443
sI38266981
I38266981
sI22874216
I22874216
sI16664681
I16664681
sI136005738
I136005738
sI403149159
I403149159
sI393562221
I393562221
sI20826222
I20826222
sI19896969
I19896969
sI197863536
I197863536
sI16599153
I16599153
sI488851571
I488851571
sI17999988
I17999988
sI6108862
I6108862
sI304083058
I304083058
sI1702799479
I1702799479
sI1941409471
I1941409471
sI911706234
I911706234
sI15706235
I15706235
sI218620803
I218620803
sI20326525
I20326525
sI26577022
I26577022
sI8769212
I8769212
sI362732626
I362732626
sI23914629
I23914629
sI38152327
I38152327
sI42412168
I42412168
sI5392522
I5392522
sI48498827
I48498827
sI1190987916
I1190987916
sI16492685
I16492685
sI58550415
I58550415
sI5695632
I5695632
sI19794065
I19794065
sI2893971
I2893971
sI12150932
I12150932
sI37718165
I37718165
sI15566998
I15566998
sI24103961
I24103961
sI1634629316
I1634629316
sI14679046
I14679046
sI31213726
I31213726
sI319776927
I319776927
sI1190051
I1190051
sI352749736
I352749736
sI15861929
I15861929
sI419719338
I419719338
sI43849415
I43849415
sI41896109
I41896109
sI97847470
I97847470
sI783763632
I783763632
sI30165169
I30165169
sI339986610
I339986610
sI188557492
I188557492
sI343730357
I343730357
sI300858733
I300858733
sI156121420
I156121420
sI254273731
I254273731
sI13019322
I13019322
sI17983675
I17983675
sI180258506
I180258506
sI1061611711
I1061611711
sI84928704
I84928704
sI360685668
I360685668
sI82695883
I82695883
sI393029828
I393029828
sI391036558
I391036558
sI188123335
I188123335
sI76966092
I76966092
sI302900941
I302900941
sI51267793
I51267793
sI1866123476
I1866123476
sI468037543
I468037543
sI138193112
I138193112
sI130907172
I130907172
sI3325110493
I3325110493
sI9922782
I9922782
sI543865893
I543865893
sI131963101
I131963101
sI69388514
I69388514
sI362236131
I362236131
sI18278629
I18278629
sI813286
I813286
sI47081703
I47081703
sI56464966
I56464966
sI366389345
I366389345
sI618531055
I618531055
sI28059888
I28059888
sI278776049
I278776049
sI60664050
I60664050
sI93104371
I93104371
sI13027572
I13027572
sI27166965
I27166965
sI27199736
I27199736
sI22536970
I22536970
sI18514408
I18514408
sI104286459
I104286459
sI213280469
I213280469
sI2916305152
I2916305152
sI15599873
I15599873
sI1072670978
I1072670978
sI254745643
I254745643
sI16247045
I16247045
sI15460614
I15460614
sI296642824
I296642824
sI81783051
I81783051
sI7861312
I7861312
sI61098255
I61098255
sI205420248
I205420248
sI87634189
I87634189
sI14469397
I14469397
sI10405912
I10405912
sI716564185
I716564185
sI41486616
I41486616
sI2936457498
I2936457498
sI76466459
I76466459
sI164768029
I164768029
sI49211678
I49211678
sI34047021
I34047021
sI713091270579658753
I713091270579658753
sI67387782
I67387782
sI3270347046
I3270347046
sI2548721959
I2548721959
sI48834856
I48834856
sI210684204
I210684204
sI428333
I428333
sI1669783434
I1669783434
sI43439837
I43439837
sI45369648
I45369648
sI860211505
I860211505
sI17295666
I17295666
sI19196214
I19196214
sI212226787
I212226787
sI14723385
I14723385
sI11348282
I11348282
sI46475579
I46475579
sI299247933
I299247933
sI172271934
I172271934
sI1460439360
I1460439360
sI14677728
I14677728
sI311765314
I311765314
sI432435595
I432435595
sI19622212
I19622212
sI1583573317
I1583573317
sI15477062
I15477062
sI3241123970
I3241123970
sI96829836
I96829836
sI23579703
I23579703
sI46278988
I46278988
sI1395021
I1395021
sI212076878
I212076878
sI90379747
I90379747
sI52422878
I52422878
sI27511121
I27511121
sI148863228
I148863228
sI26083271
I26083271
sI28068183
I28068183
sI134039897
I134039897
sI2988894554
I2988894554
sI110012763
I110012763
sI15166522
I15166522
sI18327902
I18327902
sI412453215
I412453215
sI182905184
I182905184
sI2341456225
I2341456225
sI3318147427
I3318147427
sI67750244
I67750244
sI22784357
I22784357
sI34958614
I34958614
sI227436905
I227436905
sI798998898
I798998898
sI72739184
I72739184
sI70125937
I70125937
sI25463154
I25463154
sI25373043
I25373043
sI21445694
I21445694
sI772471
I772471
sI1647288614
I1647288614
sI149343295
I149343295
sI16935292
I16935292
sI34490750
I34490750
sI382970239
I382970239
sI32352641
I32352641
sI562760067
I562760067
sI27076996
I27076996
sI16589206
I16589206
sI38668678
I38668678
sI15149447
I15149447
sI346629868
I346629868
sI36071818
I36071818
sI202350999
I202350999
sI65776012
I65776012
sI31239408
I31239408
sI46582158
I46582158
sI26470801
I26470801
sI26569107
I26569107
sI18622869
I18622869
sI742127515427164161
I742127515427164161
sI25559449
I25559449
sI13298072
I13298072
sI66038173
I66038173
sI86141342
I86141342
sI1634544032
I1634544032
sI39161013
I39161013
sI271028635
I271028635
sI2646116772
I2646116772
sI2688240037
I2688240037
sI14587400
I14587400
sI335538600
I335538600
sI322285980
I322285980
sI111621052
I111621052
sI1260366252
I1260366252
sI16853422
I16853422
sI3533231
I3533231
sI289227639
I289227639
sI94177716
I94177716
sI39320649
I39320649
sI14518714
I14518714
sI54938044
I54938044
sI14068159
I14068159
sI248900032
I248900032
sI10955202
I10955202
sI34552907
I34552907
sI222194116
I222194116
sI7005942
I7005942
sI18819527
I18819527
sI1183779272
I1183779272
sI20351433
I20351433
sI42731978
I42731978
sI44935627
I44935627
sI80734670
I80734670
sI2485930448
I2485930448
sI57567697
I57567697
sI14260608
I14260608
sI334965203
I334965203
sI2150091854
I2150091854
sI251996631
I251996631
sI14648779
I14648779
sI862681
I862681
sI31267919
I31267919
sI19573212
I19573212
sI12969722
I12969722
sI189230583
I189230583
sI20826593
I20826593
sI28830178
I28830178
sI2783418107
I2783418107
sI1284467173
I1284467173
sI15911399
I15911399
sI1630783976
I1630783976
sI15066876
I15066876
sI61024747
I61024747
sI27101676
I27101676
sI44780013
I44780013
sI4788128241
I4788128241
sI36170228
I36170228
sI79923701
I79923701
sI27175414
I27175414
sI462735867
I462735867
sI18852348
I18852348
sI140282365
I140282365
sI849766910
I849766910
sI300378623
I300378623
sI61590016
I61590016
sI15485441
I15485441
sI7334402
I7334402
sI19540483
I19540483
sI58501636
I58501636
sI21400070
I21400070
sI4716071432
I4716071432
sI883274156
I883274156
sI30018058
I30018058
sI14871051
I14871051
sI16009740
I16009740
sI128337666
I128337666
sI1401261
I1401261
sI7563792
I7563792
sI117172755
I117172755
sI58687457
I58687457
sI11512342
I11512342
sI99925081
I99925081
sI205302299
I205302299
sI17823423
I17823423
sI147745310
I147745310
sI199461408
I199461408
sI26126881
I26126881
sI19139675
I19139675
sI21342757
I21342757
sI407808551
I407808551
sI801516072
I801516072
sI14895660
I14895660
sI1674434930
I1674434930
sI2893511188
I2893511188
sI2655504943
I2655504943
sI80149492
I80149492
sI244746802
I244746802
sI551373363
I551373363
sI42314292
I42314292
sI19130934
I19130934
sI21383736
I21383736
sI15049140
I15049140
sI862218811
I862218811
sI304679484
I304679484
sI14128528
I14128528
sI20638273
I20638273
sI6048322
I6048322
sI17758502
I17758502
sI316058180
I316058180
sI19725409
I19725409
sI19350756
I19350756
sI131035262
I131035262
sI473590350
I473590350
sI454396842
I454396842
sI738167376
I738167376
sI30673492
I30673492
sI22874714
I22874714
sI41865658
I41865658
sI26208862
I26208862
sI71117407
I71117407
sI1321609825
I1321609825
sI11856482
I11856482
sI939696571
I939696571
sI15706633
I15706633
sI17656421
I17656421
sI31541862
I31541862
sI9950922
I9950922
sI588565097
I588565097
sI56461930
I56461930
sI22899307
I22899307
sI1856980754
I1856980754
sI2992751
I2992751
sI50807531
I50807531
sI98544744
I98544744
sI27650674
I27650674
sI19098228
I19098228
sI539271614
I539271614
sI40708727
I40708727
sI19499640
I19499640
sI2571446905
I2571446905
sI10283642
I10283642
sI239659643
I239659643
sI196340348
I196340348
sI197962366
I197962366
sI14640917
I14640917
sI30364057
I30364057
sI331811457
I331811457
sI64252546
I64252546
sI357952619
I357952619
sI43976252
I43976252
sI316389142
I316389142
sI14641798
I14641798
sI37999041
I37999041
sI1581218934
I1581218934
sI104288093
I104288093
sI92162698
I92162698
sI1494895243
I1494895243
sI16689804
I16689804
sI41110161
I41110161
sI1599335060
I1599335060
sI51571349
I51571349
sI72198806
I72198806
sI19433241
I19433241
sI23513752
I23513752
sI55036570
I55036570
sI164551791
I164551791
sI38021788
I38021788
sI122768030
I122768030
sI20417183
I20417183
sI14876196
I14876196
sI431147683
I431147683
sI161794725
I161794725
sI13082862
I13082862
sI757303975
I757303975
sI105269020
I105269020
sI15184327
I15184327
sI20179628
I20179628
sI15100589
I15100589
sI1180510897
I1180510897
sI544115378
I544115378
sI32423136
I32423136
sI56830645
I56830645
sI17759597
I17759597
sI245238456
I245238456
sI50747187
I50747187
sI80112314
I80112314
sI11485872
I11485872
sI77048509
I77048509
sI68078271
I68078271
sI1853704897
I1853704897
sI34474619
I34474619
sI47049412
I47049412
sI15617142
I15617142
sI423979718
I423979718
sI119982791
I119982791
sI144419528
I144419528
sI102233825
I102233825
sI14879434
I14879434
sI18229963
I18229963
sI14133964
I14133964
sI1945619149
I1945619149
sI2900355984
I2900355984
sI369781455
I369781455
sI329403088
I329403088
sI28658387
I28658387
sI3072143822
I3072143822
sI119446649
I119446649
sI22899417
I22899417
sI18664154
I18664154
sI723011141622886400
I723011141622886400
sI35982046
I35982046
sI19367717
I19367717
sI6253282
I6253282
sI15686779
I15686779
sI43846372
I43846372
sI2657610445
I2657610445
sI21460439
I21460439
sI66038505
I66038505
sI1325837034
I1325837034
sI2259528428
I2259528428
sI12456402
I12456402
sI17820399
I17820399
sI32377585
I32377585
sI954067698
I954067698
sI43240180
I43240180
sI15928053
I15928053
sI174377718
I174377718
sI127707895
I127707895
sI1330457336
I1330457336
sI858196730
I858196730
sI132279035
I132279035
sI45550693
I45550693
sI731138816
I731138816
sI29846275
I29846275
sI767504959248097280
I767504959248097280
sI15223559
I15223559
sI311765768
I311765768
sI27814665
I27814665
sI526052106
I526052106
sI240902615
I240902615
sI19008269
I19008269
sI2306403086
I2306403086
sI477276944
I477276944
sI18590482
I18590482
sI17816699
I17816699
sI326937364
I326937364
sI29649685
I29649685
sI38488854
I38488854
sI1105007065
I1105007065
sI275680024
I275680024
sI15088772
I15088772
sI65751834
I65751834
sI43920155
I43920155
sI20324912
I20324912
sI11864862
I11864862
sI103115551
I103115551
sI17599264
I17599264
sI16960289
I16960289
sI269945634
I269945634
sI15313699
I15313699
sI17017636
I17017636
sI7339142
I7339142
sI16042794
I16042794
sI20286251
I20286251
sI49589039
I49589039
sI9788552
I9788552
sI122571571
I122571571
sI337529652
I337529652
sI19221302
I19221302
sI322235191
I322235191
sI16960313
I16960313
sI10439482
I10439482
sI57625403
I57625403
sI248843069
I248843069
sI16034622
I16034622
sI21436213
I21436213
sI29221344
I29221344
sI58166411
I58166411
sI33868612
I33868612
sI602199862
I602199862
sI26929990
I26929990
sI353225544
I353225544
sI18238282
I18238282
sI44886859
I44886859
sI76455053
I76455053
sI1535060659
I1535060659
sI475286355
I475286355
sI135940948
I135940948
sI20884310
I20884310
sI109505368
I109505368
sI24629732
I24629732
sI114862938
I114862938
sI22899547
I22899547
sI1736231772
I1736231772
sI209033018
I209033018
sI37056997
I37056997
sI911559522
I911559522
sI71256932
I71256932
sI79866726
I79866726
sI1434164370
I1434164370
sI34548590
I34548590
sI28384755
I28384755
sI732318576
I732318576
sI136194929
I136194929
sI1000262514
I1000262514
sI12609342
I12609342
sI1442663286
I1442663286
sI58518392
I58518392
sI16250714
I16250714
sI885459835
I885459835
sI333933436
I333933436
sI19263978
I19263978
sI516172670
I516172670
sI16993151
I16993151
sI237882240
I237882240
sI87403396
I87403396
sI25054086
I25054086
sI15182728
I15182728
sI1071350252
I1071350252
sI156388234
I156388234
sI34687884
I34687884
sI218654530
I218654530
sI73190286
I73190286
sI183749519
I183749519
sI249203600
I249203600
sI14576529
I14576529
sI25562002
I25562002
sI14416109
I14416109
sI192023444
I192023444
sI11276782
I11276782
sI870624152
I870624152
sI17533851
I17533851
sI775220124
I775220124
sI23088029
I23088029
sI1909885854
I1909885854
sI37710752
I37710752
sI338062243
I338062243
sI374737828
I374737828
sI14314406
I14314406
sI430121457
I430121457
sI21744554
I21744554
sI70036395
I70036395
sI1587194796
I1587194796
sI341251022
I341251022
sI205360046
I205360046
sI19155889
I19155889
sI17796018
I17796018
sI594914227
I594914227
sI34458549
I34458549
sI18164662
I18164662
sI1720077240
I1720077240
sI330239135
I330239135
sI21900222
I21900222
sI29354944
I29354944
sI34868161
I34868161
sI14248898
I14248898
sI805856929813663744
I805856929813663744
sI11244022
I11244022
sI23825350
I23825350
sI14141624
I14141624
sI204188618
I204188618
sI244288460
I244288460
sI18713552
I18713552
sI14463848
I14463848
sI2484598957
I2484598957
sI148499413
I148499413
sI398281686
I398281686
sI31280292
I31280292
sI78408666
I78408666
sI16215003
I16215003
sI354847710
I354847710
sI166284256
I166284256
sI274025441
I274025441
sI8273062
I8273062
sI243086969
I243086969
sI583232488
I583232488
sI29880449
I29880449
sI95775723
I95775723
sI1730410322
I1730410322
sI19172334
I19172334
sI34466799
I34466799
sI16730427
I16730427
sI27773078
I27773078
sI320599891
I320599891
sI2152125960
I2152125960
sI289401846
I289401846
sI31943671
I31943671
sI15679641
I15679641
sI11856892
I11856892
sI127273981
I127273981
sI29355007
I29355007
sI862448640
I862448640
sI1039531
I1039531
sI17083396
I17083396
sI14150661
I14150661
sI1663945734
I1663945734
sI15846407
I15846407
sI15985672
I15985672
sI471526411
I471526411
sI569625612
I569625612
sI1910460930
I1910460930
sI587582478
I587582478
sI14076943
I14076943
sI248359952
I248359952
sI65522706
I65522706
sI9366702
I9366702
sI49753110
I49753110
sI24505368
I24505368
sI20734468
I20734468
sI1270746139
I1270746139
sI19139612
I19139612
sI432887642
I432887642
sI136129566
I136129566
sI26696880
I26696880
sI24024878
I24024878
sI32956899
I32956899
sI15076390
I15076390
sI40561703
I40561703
sI15944744
I15944744
sI43707434
I43707434
sI81964075
I81964075
sI23923758
I23923758
sI111455279
I111455279
sI80366641
I80366641
sI90016819
I90016819
sI246336565
I246336565
sI18058295
I18058295
sI256269510
I256269510
sI72333026
I72333026
sI21916730
I21916730
sI17981400
I17981400
sI20876350
I20876350
sI27937973
I27937973
sI164599258
I164599258
sI158084161
I158084161
sI1452649538
I1452649538
sI1073138755
I1073138755
sI2732035142
I2732035142
sI500097478
I500097478
sI30331404
I30331404
sI82144330
I82144330
sI1390750795
I1390750795
sI254348364
I254348364
sI21326925
I21326925
sI64087346
I64087346
sI273146381
I273146381
sI11062352
I11062352
sI14920785
I14920785
sI38683121
I38683121
sI19074134
I19074134
sI157183063
I157183063
sI98765912
I98765912
sI379867663
I379867663
sI250014813
I250014813
sI15510623
I15510623
sI626338912
I626338912
sI20091408
I20091408
sI366356326
I366356326
sI18861158
I18861158
sI73321575
I73321575
sI8383592
I8383592
sI17681513
I17681513
sI31280234
I31280234
sI45968491
I45968491
sI22428830
I22428830
sI97487983
I97487983
sI34417776
I34417776
sI361565297
I361565297
sI378850418
I378850418
sI65465459
I65465459
sI21405623
I21405623
sI54643830
I54643830
sI35507319
I35507319
sI46600724
I46600724
sI7285882
I7285882
sI2528595067
I2528595067
sI996019326
I996019326
sI409440789
I409440789
sI19364147
I19364147
sI30190723
I30190723
sI14144022
I14144022
sI886025352
I886025352
sI15655290
I15655290
sI276644375
I276644375
sI14527193
I14527193
sI160271503
I160271503
sI204975248
I204975248
sI2866719889
I2866719889
sI2458716014
I2458716014
sI19262614
I19262614
sI207021307
I207021307
sI36301976
I36301976
sI491064516
I491064516
sI106146970
I106146970
sI36023452
I36023452
sI16157855
I16157855
sI19008672
I19008672
sI96808100
I96808100
sI256052389
I256052389
sI17599655
I17599655
sI2244340904
I2244340904
sI9956522
I9956522
sI64482503
I64482503
sI555474242
I555474242
sI474393774
I474393774
sI162959901
I162959901
sI293850289
I293850289
sI1653509298
I1653509298
sI23284917
I23284917
sI136293558
I136293558
sI17804472
I17804472
sI582372538
I582372538
sI38186171
I38186171
sI18468029
I18468029
sI369604872
I369604872
sI46918847
I46918847
sI2414587074
I2414587074
sI14388420
I14388420
sI15673206
I15673206
sI285486279
I285486279
sI503835848
I503835848
sI610225353
I610225353
sI62581962
I62581962
sI15854796
I15854796
sI381090926
I381090926
sI3017714894
I3017714894
sI180505807
I180505807
sI2592547363
I2592547363
sI14638983
I14638983
sI446516513
I446516513
sI23047382
I23047382
sI1614163159
I1614163159
sI17476825
I17476825
sI94670042
I94670042
sI17813899
I17813899
sI14120151
I14120151
sI19362341
I19362341
sI775351520
I775351520
sI19049697
I19049697
sI112102626
I112102626
sI587082979
I587082979
sI16206344
I16206344
sI103550181
I103550181
sI583298278
I583298278
sI93785319
I93785319
sI1470534931
I1470534931
sI36001660
I36001660
sI69027747
I69027747
sI497380587
I497380587
sI2147904750
I2147904750
sI21636989
I21636989
sI20835568
I20835568
sI480046321
I480046321
sI16125170
I16125170
sI133860596
I133860596
sI3301821685
I3301821685
sI21447363
I21447363
sI102148991
I102148991
sI24016767
I24016767
sI2173431650
I2173431650
sI2226998527
I2226998527
sI2364886272
I2364886272
sI76852483
I76852483
sI21465848
I21465848
sI175500549
I175500549
sI20720902
I20720902
sI193932552
I193932552
sI59141386
I59141386
sI50220247
I50220247
sI23325965
I23325965
sI17173775
I17173775
sI21454729
I21454729
sI199027985
I199027985
sI256249106
I256249106
sI21687572
I21687572
sI36392214
I36392214
sI2360118552
I2360118552
sI116878617
I116878617
sI179055898
I179055898
sI95735067
I95735067
sI29314332
I29314332
sI156626206
I156626206
sI37136261
I37136261
sI1950289184
I1950289184
sI176931376
I176931376
sI44977444
I44977444
sI570279790
I570279790
sI154840358
I154840358
sI38145319
I38145319
sI16125224
I16125224
sI2658049244
I2658049244
sI17116459
I17116459
sI706694991695912960
I706694991695912960
sI82017501
I82017501
sI3254144304
I3254144304
sI55031688
I55031688
sI86330674
I86330674
sI2706354739
I2706354739
sI224333112
I224333112
sI19918047
I19918047
sI2400608216
I2400608216
sI16059709
I16059709
sI9923902
I9923902
sI63868224
I63868224
sI21802305
I21802305
sI10849602
I10849602
sI15174980
I15174980
sI573934917
I573934917
sI22105417
I22105417
sI322653514
I322653514
sI71888206
I71888206
sI118230351
I118230351
sI131231056
I131231056
sI46476526
I46476526
sI16018770
I16018770
sI10245552
I10245552
sI22997862
I22997862
sI298814813
I298814813
sI53210455
I53210455
sI21687642
I21687642
sI2279466895
I2279466895
sI16051549
I16051549
sI758041950
I758041950
sI21449957
I21449957
sI178122080
I178122080
sI221217339
I221217339
sI45076480
I45076480
sI106311016
I106311016
sI257823292
I257823292
sI80096621
I80096621
sI3043901
I3043901
sI1532061
I1532061
sI18058609
I18058609
sI809424572
I809424572
sI331271544
I331271544
sI35474809
I35474809
sI113765754
I113765754
sI2459771455
I2459771455
sI15953279
I15953279
sI14634897
I14634897
sI2223451512
I2223451512
sI110079362
I110079362
sI155077867
I155077867
sI121597316
I121597316
sI110595130
I110595130
sI299890254
I299890254
sI179248364
I179248364
sI23022687
I23022687
sI14093707
I14093707
sI35499404
I35499404
sI27185730
I27185730
sI67431822
I67431822
sI236252559
I236252559
sI15199633
I15199633
sI2321427858
I2321427858
sI20778387
I20778387
sI2873003246
I2873003246
sI18247062
I18247062
sI16051608
I16051608
sI30313925
I30313925
sI549719451
I549719451
sI204320156
I204320156
sI516132253
I516132253
sI2353508762
I2353508762
sI61320607
I61320607
sI23817632
I23817632
sI516115696
I516115696
sI2818008602
I2818008602
sI314772901
I314772901
sI366202279
I366202279
sI1478847912
I1478847912
sI513387945
I513387945
sI21990826
I21990826
sI49474989
I49474989
sI1452778428
I1452778428
sI2352206408
I2352206408
sI16190898
I16190898
sI30345812
I30345812
sI30910366
I30910366
sI569675191
I569675191
sI10284472
I10284472
sI121884089
I121884089
sI14677919
I14677919
sI921439676
I921439676
sI403135593
I403135593
sI6114752
I6114752
sI15723971
I15723971
sI44494276
I44494276
sI56774085
I56774085
sI81191957
I81191957
sI17640903
I17640903
sI62894886
I62894886
sI72715723
I72715723
sI909282764
I909282764
sI23489997
I23489997
sI48549329
I48549329
sI18244358
I18244358
sI242609619
I242609619
sI17444309
I17444309
sI38030806
I38030806
sI91730462
I91730462
sI67251674
I67251674
sI26127836
I26127836
sI19869149
I19869149
sI26019749
I26019749
sI990170592
I990170592
sI19373307
I19373307
sI16217039
I16217039
sI16028241
I16028241
sI38612458
I38612458
sI327003627
I327003627
sI155643375
I155643375
sI14645160
I14645160
sI2303462899
I2303462899
sI63916971
I63916971
sI119934453
I119934453
sI23014902
I23014902
sI78450167
I78450167
sI1182683370
I1182683370
sI166669818
I166669818
sI15568127
I15568127
sI14634494
I14634494
sI20753919
I20753919
sI21982720
I21982720
sI16076032
I16076032
sI38030852
I38030852
sI21324374
I21324374
sI14540033
I14540033
sI518931892
I518931892
sI1856482826
I1856482826
sI354127372
I354127372
sI192908111
I192908111
sI1965698574
I1965698574
sI197553681
I197553681
sI7212562
I7212562
sI324873475
I324873475
sI20565524
I20565524
sI264973847
I264973847
sI69373465
I69373465
sI14437914
I14437914
sI46632475
I46632475
sI111644189
I111644189
sI30600734
I30600734
sI28479007
I28479007
sI67833376
I67833376
sI19740592
I19740592
sI1442811426
I1442811426
sI6794502
I6794502
sI49270310
I49270310
sI487034385
I487034385
sI260907612
I260907612
sI353701419
I353701419
sI30354991
I30354991
sI2319886412
I2319886412
sI43224625
I43224625
sI773107250
I773107250
sI64917046
I64917046
sI539446839
I539446839
sI212307512
I212307512
sI22859321
I22859321
sI64803423
I64803423
sI2409426493
I2409426493
sI140201537
I140201537
sI14577218
I14577218
sI33312323
I33312323
sI24309321
I24309321
sI835653272
I835653272
sI351637067
I351637067
sI38014541
I38014541
sI16690498
I16690498
sI18230864
I18230864
sI1994321
I1994321
sI18822934
I18822934
sI21919834
I21919834
sI65375829
I65375829
sI29312953
I29312953
sI1927695961
I1927695961
sI168603226
I168603226
sI19795404
I19795404
sI119205469
I119205469
sI36646494
I36646494
sI57929312
I57929312
sI18300176
I18300176
sI25053299
I25053299
sI1164422756
I1164422756
sI2274217573
I2274217573
sI2893999718
I2893999718
sI183914087
I183914087
sI121983536
I121983536
sI272060040
I272060040
sI90418795
I90418795
sI98029164
I98029164
sI275537170
I275537170
sI23866990
I23866990
sI303894127
I303894127
sI612273777
I612273777
sI16952947
I16952947
sI2576338548
I2576338548
sI112045685
I112045685
sI243707156
I243707156
sI233631354
I233631354
sI20352637
I20352637
sI484798079
I484798079
sI83885977
I83885977
sI6219712
I6219712
sI204713602
I204713602
sI23023236
I23023236
sI11275542
I11275542
sI14372486
I14372486
sI89828999
I89828999
sI2438835848
I2438835848
sI212214169
I212214169
sI2874584716
I2874584716
sI190795674
I190795674
sI1672406011
I1672406011
sI221671056
I221671056
sI75959576
I75959576
sI339922579
I339922579
sI50204308
I50204308
sI14593685
I14593685
sI1235717401
I1235717401
sI21360280
I21360280
sI845008537
I845008537
sI23236250
I23236250
sI18812572
I18812572
sI17460894
I17460894
sI45577446
I45577446
sI887434916
I887434916
sI40297195
I40297195
sI132632232
I132632232
sI36990638
I36990638
sI21393071
I21393071
sI85724849
I85724849
sI42397362
I42397362
sI15716020
I15716020
sI484728094
I484728094
sI30387894
I30387894
sI75255479
I75255479
sI14356153
I14356153
sI22843068
I22843068
sI26054333
I26054333
sI254346910
I254346910
sI66948799
I66948799
sI20964826
I20964826
sI2963754272
I2963754272
sI18828994
I18828994
sI1322691
I1322691
sI260026515
I260026515
sI21787254
I21787254
sI448048839
I448048839
sI272068297
I272068297
sI112889546
I112889546
sI15535821
I15535821
sI20917967
I20917967
sI117534417
I117534417
sI117922238
I117922238
sI34787031
I34787031
sI34582232
I34582232
sI15781156
I15781156
sI158207707
I158207707
sI30117598
I30117598
sI598166821
I598166821
sI148664032
I148664032
sI2987773665
I2987773665
sI19263203
I19263203
sI38133030
I38133030
sI26070758
I26070758
sI237375207
I237375207
sI234180328
I234180328
sI54723196
I54723196
sI17207019
I17207019
sI45494653
I45494653
sI60793803
I60793803
sI28176111
I28176111
sI274673392
I274673392
sI37301544
I37301544
sI18271033
I18271033
sI372575989
I372575989
sI353878706
I353878706
sI18812301
I18812301
sI14667513
I14667513
sI18255610
I18255610
sI827658471000600576
I827658471000600576
sI22171390
I22171390
sI25038592
I25038592
sI167218945
I167218945
sI15675138
I15675138
sI14339845
I14339845
sI19697415
I19697415
sI106908507
I106908507
sI13192972
I13192972
sI73199373
I73199373
sI3168145166
I3168145166
sI15585039
I15585039
sI34565904
I34565904
sI3105009425
I3105009425
sI34713362
I34713362
sI71134996
I71134996
sI2903141678
I2903141678
sI568797145
I568797145
sI58347289
I58347289
sI16994074
I16994074
sI74338077
I74338077
sI20942622
I20942622
sI2451935527
I2451935527
sI16212685
I16212685
sI110612259
I110612259
sI289377187
I289377187
sI50188069
I50188069
sI2177093414
I2177093414
sI15588657
I15588657
sI16568104
I16568104
sI14653404
I14653404
sI28300497
I28300497
sI29503275
I29503275
sI50687788
I50687788
sI511102258
I511102258
sI3104190254
I3104190254
sI16252800
I16252800
sI40881970
I40881970
sI2394820404
I2394820404
sI356405047
I356405047
sI462720825
I462720825
sI159642250
I159642250
sI150990657
I150990657
sI8220482
I8220482
sI54496369
I54496369
sI269203196
I269203196
sI42553158
I42553158
sI36771809
I36771809
sI23375688
I23375688
sI321769289
I321769289
sI43508239
I43508239
sI334984155
I334984155
sI14511951
I14511951
sI49208632
I49208632
sI411930450
I411930450
sI73846612
I73846612
sI19140437
I19140437
sI330013785
I330013785
sI28208983
I28208983
sI149368664
I149368664
sI618934105
I618934105
sI145141595
I145141595
sI44981562
I44981562
sI25456478
I25456478
sI14727141
I14727141
sI46026594
I46026594
sI17100644
I17100644
sI4189884262
I4189884262
sI20811623
I20811623
sI43929449
I43929449
sI105197418
I105197418
sI35491693
I35491693
sI7589742
I7589742
sI29249391
I29249391
sI153087575
I153087575
sI23482225
I23482225
sI14605630
I14605630
sI3024465782
I3024465782
sI375205752
I375205752
sI425471865
I425471865
sI389361530
I389361530
sI484408639
I484408639
sI46010237
I46010237
sI802557822
I802557822
sI49573759
I49573759
sI18091904
I18091904
sI1872588673
I1872588673
sI1238232962
I1238232962
sI1925699563
I1925699563
sI52899716
I52899716
sI24506246
I24506246
sI244284737
I244284737
sI34865557
I34865557
sI500113600
I500113600
sI8781122
I8781122
sI348688273
I348688273
sI59002770
I59002770
sI32698259
I32698259
sI15044502
I15044502
sI544034711
I544034711
sI16027546
I16027546
sI13058232
I13058232
sI458674076
I458674076
sI351221537
I351221537
sI254218142
I254218142
sI1912557474
I1912557474
sI364556195
I364556195
sI7040932
I7040932
sI14749606
I14749606
sI127668135
I127668135
sI61777463
I61777463
sI23777198
I23777198
sI818910970567344128
I818910970567344128
sI45174704
I45174704
sI17669448
I17669448
sI14626738
I14626738
sI23534991
I23534991
sI44535734
I44535734
sI45436858
I45436858
sI19796639
I19796639
sI1027231676
I1027231676
sI18034622
I18034622
sI2998899943
I2998899943
sI14987201
I14987201
sI28168131
I28168131
sI20172740
I20172740
sI1337395190
I1337395190
sI41889734
I41889734
sI920104904
I920104904
sI22843337
I22843337
sI2568302540
I2568302540
sI4863545294
I4863545294
sI110284751
I110284751
sI28698765
I28698765
sI77041618
I77041618
sI326255267
I326255267
sI174895061
I174895061
sI296349654
I296349654
sI161362985
I161362985
sI20082649
I20082649
sI14716890
I14716890
sI39186395
I39186395
sI242915322
I242915322
sI26595294
I26595294
sI55570400
I55570400
sI14597819
I14597819
sI469700582
I469700582
sI259403751
I259403751
sI4132841
I4132841
sI6221802
I6221802
sI213790699
I213790699
sI146273487
I146273487
sI14119086
I14119086
sI15192048
I15192048
sI22429011
I22429011
sI5402612
I5402612
sI107127832
I107127832
sI783659000
I783659000
sI19058681
I19058681
sI352841722
I352841722
sI19274676
I19274676
sI18775362
I18775362
sI22466558
I22466558
sI377154049
I377154049
sI702633105429901312
I702633105429901312
sI250916865
I250916865
sI808935425809248258
I808935425809248258
sI106852355
I106852355
sI275714052
I275714052
sI19394565
I19394565
sI16213511
I16213511
sI73286884
I73286884
sI104632332
I104632332
sI23039605
I23039605
sI403075086
I403075086
sI173646509
I173646509
sI65499153
I65499153
sI220147730
I220147730
sI133064711
I133064711
sI19321518
I19321518
sI24029774
I24029774
sI1914138648
I1914138648
sI338084918
I338084918
sI21671962
I21671962
sI84709404
I84709404
sI962957341
I962957341
sI385732640
I385732640
sI27029537
I27029537
sI2826293282
I2826293282
sI259403099
I259403099
sI475482639
I475482639
sI33006004
I33006004
sI114102316
I114102316
sI173936685
I173936685
sI745751808
I745751808
sI370004015
I370004015
sI24014897
I24014897
sI26177586
I26177586
sI80711731
I80711731
sI14676022
I14676022
sI2896908344
I2896908344
sI21909561
I21909561
sI2166247482
I2166247482
sI259387453
I259387453
sI386314302
I386314302
sI42676287
I42676287
sI21737536
I21737536
sI970207298
I970207298
sI261820484
I261820484
sI89051830
I89051830
sI15585350
I15585350
sI24932423
I24932423
sI1512190026
I1512190026
sI410308683
I410308683
sI6708952
I6708952
sI299364430
I299364430
sI85397586
I85397586
sI19781646
I19781646
sI1265455190
I1265455190
sI12521562
I12521562
sI25053199
I25053199
sI27676108
I27676108
sI16753896
I16753896
sI17166431
I17166431
sI59157393
I59157393
sI145745936
I145745936
sI43380835
I43380835
sI17453156
I17453156
sI41259041
I41259041
sI106336358
I106336358
sI2960961640
I2960961640
sI213864553
I213864553
sI2600355415
I2600355415
sI1683744505
I1683744505
sI1134701
I1134701
sI17543278
I17543278
sI15950525
I15950525
sI439832688
I439832688
sI87502961
I87502961
sI37441640
I37441640
sI16058387
I16058387
sI1589629044
I1589629044
sI948765374
I948765374
sI19467625
I19467625
sI626315387
I626315387
sI14069884
I14069884
sI31608957
I31608957
sI25653374
I25653374
sI20050047
I20050047
sI16619904
I16619904
sI14135426
I14135426
sI101572348
I101572348
sI810219551954702336
I810219551954702336
sI212323439
I212323439
sI237498513
I237498513
sI27611273
I27611273
sI159289482
I159289482
sI978814999
I978814999
sI47550605
I47550605
sI333861006
I333861006
sI15413391
I15413391
sI289779856
I289779856
sI107171985
I107171985
sI20304018
I20304018
sI179716803
I179716803
sI2495529732
I2495529732
sI37089433
I37089433
sI331518110
I331518110
sI22278303
I22278303
sI63283906
I63283906
sI1523542460
I1523542460
sI797837447090540545
I797837447090540545
sI1566527653
I1566527653
sI26562726
I26562726
sI16715121
I16715121
sI39268521
I39268521
sI190812330
I190812330
sI11861362
I11861362
sI18084014
I18084014
sI274174127
I274174127
sI19337422
I19337422
sI284602545
I284602545
sI185063720
I185063720
sI23736500
I23736500
sI362645534
I362645534
sI69145289
I69145289
sI115749048
I115749048
sI18092217
I18092217
sI58134715
I58134715
sI26972349
I26972349
sI268734654
I268734654
sI234765685
I234765685
sI67219650
I67219650
sI52339403
I52339403
sI397750469
I397750469
sI25634849
I25634849
sI1358949456
I1358949456
sI126800074
I126800074
sI766753179623010304
I766753179623010304
sI1750831309
I1750831309
sI43725006
I43725006
sI21786831
I21786831
sI21027038
I21027038
sI45686136
I45686136
sI28610770
I28610770
sI25729059
I25729059
sI15110357
I15110357
sI115151063
I115151063
sI59238436
I59238436
sI40079578
I40079578
sI188093372
I188093372
sI26167625
I26167625
sI130496027
I130496027
sI297586913
I297586913
sI196497635
I196497635
sI82308072
I82308072
sI242572271
I242572271
sI6656232
I6656232
sI433828074
I433828074
sI338563307
I338563307
sI14414065
I14414065
sI441315570
I441315570
sI16584947
I16584947
sI2931691765
I2931691765
sI23408887
I23408887
sI545782435
I545782435
sI263033081
I263033081
sI372560123
I372560123
sI3321671932
I3321671932
sI19869949
I19869949
sI16331010
I16331010
sI43495684
I43495684
sI193863680
I193863680
sI164434184
I164434184
sI28283145
I28283145
sI61542667
I61542667
sI250532108
I250532108
sI930061
I930061
sI1286590622
I1286590622
sI2594451727
I2594451727
sI45486353
I45486353
sI34492690
I34492690
sI457125251
I457125251
sI430280980
I430280980
sI764244247
I764244247
sI8343832
I8343832
sI434540825
I434540825
sI193917210
I193917210
sI29866558
I29866558
sI1273753884
I1273753884
sI2427938593
I2427938593
sI176652457
I176652457
sI15110431
I15110431
sI1626550560
I1626550560
sI80095640
I80095640
sI3445031
I3445031
sI553001692
I553001692
sI3234124074
I3234124074
sI29274412
I29274412
sI18818177
I18818177
sI27980080
I27980080
sI896897329
I896897329
sI16224705
I16224705
sI42346547
I42346547
sI19575092
I19575092
sI17551670
I17551670
sI348888457
I348888457
sI274684139
I274684139
sI211626713
I211626713
sI35533118
I35533118
sI17789247
I17789247
sI614134080
I614134080
sI14116915
I14116915
sI59226213
I59226213
sI531815819
I531815819
sI5943622
I5943622
sI275751649
I275751649
sI53898636
I53898636
sI172650826
I172650826
sI37650136
I37650136
sI16019789
I16019789
sI2807001422
I2807001422
sI19575119
I19575119
sI818663760
I818663760
sI169039928
I169039928
sI4761334099
I4761334099
sI113144148
I113144148
sI83324302
I83324302
sI184481328
I184481328
sI908849497
I908849497
sI2396459354
I2396459354
sI19386715
I19386715
sI65515871
I65515871
sI820736352
I820736352
sI26431843
I26431843
sI562893156
I562893156
sI15929702
I15929702
sI119222631
I119222631
sI2164470120
I2164470120
sI369077896
I369077896
sI18731751
I18731751
sI530996626
I530996626
sI17296792
I17296792
sI33509743
I33509743
sI19329393
I19329393
sI26709395
I26709395
sI366465398
I366465398
sI179155320
I179155320
sI747925885
I747925885
sI176927102
I176927102
sI1849635199
I1849635199
sI489058688
I489058688
sI214290818
I214290818
sI2517988075
I2517988075
sI167096709
I167096709
sI145600904
I145600904
sI110486252
I110486252
sI516911498
I516911498
sI749963
I749963
sI1893052812
I1893052812
sI603140493
I603140493
sI15192462
I15192462
sI134156687
I134156687
sI18796945
I18796945
sI25087685
I25087685
sI27740227
I27740227
sI17281428
I17281428
sI1588449685
I1588449685
sI126251415
I126251415
sI26527812
I26527812
sI28758426
I28758426
sI94642927
I94642927
sI24859036
I24859036
sI7098782
I7098782
sI613331360
I613331360
sI94146977
I94146977
sI14677012
I14677012
sI14670394
I14670394
sI2986176932
I2986176932
sI50325797
I50325797
sI50835878
I50835878
sI104092071
I104092071
sI36483498
I36483498
sI16249259
I16249259
sI38072748
I38072748
sI128594349
I128594349
sI43453853
I43453853
sI391075912
I391075912
sI7713202
I7713202
sI58569139
I58569139
sI193868212
I193868212
sI56185270
I56185270
sI30832713
I30832713
sI322318777
I322318777
sI1932530106
I1932530106
sI130895599
I130895599
sI16740797
I16740797
sI18649537
I18649537
sI23876035
I23876035
sI61285110
I61285110
sI11522502
I11522502
sI14138785
I14138785
sI20346956
I20346956
sI19722699
I19722699
sI10260942
I10260942
sI17560015
I17560015
sI16107624
I16107624
sI9321712
I9321712
sI20124114
I20124114
sI36843988
I36843988
sI48512420
I48512420
sI85854287
I85854287
sI17813980
I17813980
sI1571270053
I1571270053
sI174026067
I174026067
sI485986786
I485986786
sI9720292
I9720292
sI16896485
I16896485
sI388829670
I388829670
sI574026215
I574026215
sI16250929
I16250929
sI18343801
I18343801
sI975450602
I975450602
sI1439412715
I1439412715
sI18806753
I18806753
sI19575278
I19575278
sI18301693
I18301693
sI16160062
I16160062
sI36278774
I36278774
sI116354473
I116354473
sI24900088
I24900088
sI17217640
I17217640
sI19362299
I19362299
sI63926780
I63926780
sI149180925
I149180925
sI248795646
I248795646
sI137515519
I137515519
sI19575297
I19575297
sI1426952706
I1426952706
sI15446531
I15446531
sI29247574
I29247574
sI6017542
I6017542
sI185397767
I185397767
sI58544650
I58544650
sI566818903
I566818903
sI20550156
I20550156
sI25580290
I25580290
sI790172174
I790172174
sI18043407
I18043407
sI198636048
I198636048
sI277869073
I277869073
sI297603602
I297603602
sI579580435
I579580435
sI254177812
I254177812
sI806310421
I806310421
sI1195225622
I1195225622
sI15693913
I15693913
sI7705112
I7705112
sI7496452
I7496452
sI14438940
I14438940
sI589787677
I589787677
sI20400757
I20400757
sI16192261
I16192261
sI17560096
I17560096
sI15012385
I15012385
sI813772855586471937
I813772855586471937
sI223669817
I223669817
sI22303271
I22303271
sI16252784
I16252784
sI1154855466
I1154855466
sI3056391
I3056391
sI15639642
I15639642
sI28302705
I28302705
sI10228272
I10228272
sI15667763
I15667763
sI1445460062
I1445460062
sI334467639
I334467639
sI8802872
I8802872
sI108243259
I108243259
sI15880764
I15880764
sI281809469
I281809469
sI32469566
I32469566
sI77582913
I77582913
sI21074498
I21074498
sI117240389
I117240389
sI19575366
I19575366
sI156559457
I156559457
sI43815496
I43815496
sI209165796
I209165796
sI228913739
I228913739
sI735449676
I735449676
sI15199325
I15199325
sI19280653
I19280653
sI378278480
I378278480
sI343642705
I343642705
sI33003619
I33003619
sI35549780
I35549780
sI19344825
I19344825
sI1473712728
I1473712728
sI31455332
I31455332
sI30757467
I30757467
sI258198244
I258198244
sI19575391
I19575391
sI823905
I823905
sI19673700
I19673700
sI21918310
I21918310
sI1315431
I1315431
sI233763432
I233763432
sI270602857
I270602857
sI17199723
I17199723
sI168775611
I168775611
sI1683894894
I1683894894
sI532640367
I532640367
sI24067213
I24067213
sI12413032
I12413032
sI1335870978
I1335870978
sI36590197
I36590197
sI544477814
I544477814
sI108088376
I108088376
sI37876500
I37876500
sI169686021
I169686021
sI849662587
I849662587
sI11965052
I11965052
sI365399565
I365399565
sI88150805
I88150805
sI334984455
I334984455
sI1643418242
I1643418242
sI121877124
I121877124
sI98012335
I98012335
sI19575430
I19575430
sI23835272
I23835272
sI779083124
I779083124
sI925045386
I925045386
sI141464343
I141464343
sI914061
I914061
sI42924141
I42924141
sI16102033
I16102033
sI567120530
I567120530
sI256373395
I256373395
sI934681
I934681
sI21443225
I21443225
sI69181624
I69181624
sI249372481
I249372481
sI576926367
I576926367
sI2281044080
I2281044080
sI874735406
I874735406
sI41144996
I41144996
sI21320357
I21320357
sI3668081
I3668081
sI334418600
I334418600
sI259379883
I259379883
sI156709548
I156709548
sI262466588
I262466588
sI11178672
I11178672
sI273552051
I273552051
sI1881322164
I1881322164
sI15397558
I15397558
sI18202664
I18202664
sI1450095288
I1450095288
sI32486073
I32486073
sI22086431
I22086431
sI711422653
I711422653
sI24029301
I24029301
sI4227322574
I4227322574
sI246961661
I246961661
sI563819203
I563819203
sI18278008
I18278008
sI497357513
I497357513
sI295391946
I295391946
sI67981576
I67981576
sI23982798
I23982798
sI33142145
I33142145
sI466909304
I466909304
sI108286674
I108286674
sI94010830
I94010830
sI1328173784
I1328173784
sI18275791
I18275791
sI18772700
I18772700
sI16003805
I16003805
sI35074782
I35074782
sI20214495
I20214495
sI17502947
I17502947
sI104309468
I104309468
sI1350751014
I1350751014
sI18206161
I18206161
sI582185706
I582185706
sI37016299
I37016299
sI184997446
I184997446
sI629636562
I629636562
sI17494766
I17494766
sI17044207
I17044207
sI16929520
I16929520
sI429658866
I429658866
sI871891
I871891
sI573035252
I573035252
sI86389493
I86389493
sI103101225
I103101225
sI2753557240
I2753557240
sI262132473
I262132473
sI327602938
I327602938
sI471803
I471803
sI20755242
I20755242
sI742143
I742143
sI20402945
I20402945
sI33387266
I33387266
sI18467667
I18467667
sI60642052
I60642052
sI34262486
I34262486
sI1963315975
I1963315975
sI2421527305
I2421527305
sI123032330
I123032330
sI438727435
I438727435
sI20806376
I20806376
sI318206734
I318206734
sI17378543
I17378543
sI260444944
I260444944
sI19141393
I19141393
sI61719935
I61719935
sI28472084
I28472084
sI20656917
I20656917
sI14061283
I14061283
sI15186052
I15186052
sI12044602
I12044602
sI22942492
I22942492
sI1046661
I1046661
sI292393760
I292393760
sI10326832
I10326832
sI16978723
I16978723
sI917371014
I917371014
sI57619238
I57619238
sI1587467047
I1587467047
sI33297193
I33297193
sI45994794
I45994794
sI259978027
I259978027
sI117158700
I117158700
sI202806066
I202806066
sI1176994477
I1176994477
sI629086024
I629086024
sI2409435954
I2409435954
sI1977537332
I1977537332
sI17282608
I17282608
sI1774391
I1774391
sI23319354
I23319354
sI67564029
I67564029
sI19204234
I19204234
sI84276031
I84276031
sI551179072
I551179072
sI2458844640
I2458844640
sI25852043
I25852043
sI321857894
I321857894
sI14587949
I14587949
sI2437813063
I2437813063
sI473363273
I473363273
sI65857677
I65857677
sI2564625234
I2564625234
sI3091054051
I3091054051
sI9892692
I9892692
sI2263667544
I2263667544
sI32330585
I32330585
sI209711962
I209711962
sI15881051
I15881051
sI40162140
I40162140
sI16061242
I16061242
sI263336798
I263336798
sI84317027
I84317027
sI17812949
I17812949
sI14504805
I14504805
sI4540561
I4540561
sI390288232
I390288232
sI571265899
I571265899
sI783214
I783214
sI1571443567
I1571443567
sI19575665
I19575665
sI18831507
I18831507
sI15651700
I15651700
sI1520501
I1520501
sI19780471
I19780471
sI19182456
I19182456
sI14357369
I14357369
sI101290875
I101290875
sI410971626
I410971626
sI16623765
I16623765
sI2878812992
I2878812992
sI41309058
I41309058
sI18060163
I18060163
sI89503894
I89503894
sI56841094
I56841094
sI398943890
I398943890
sI218043275
I218043275
sI80180108
I80180108
sI49206158
I49206158
sI2426213263
I2426213263
sI457315216
I457315216
sI288873580
I288873580
sI50090898
I50090898
sI391037985
I391037985
sI45929366
I45929366
sI19854233
I19854233
sI153916316
I153916316
sI1347285918
I1347285918
sI135713695
I135713695
sI1222611872
I1222611872
sI297898913
I297898913
sI14037922
I14037922
sI886395811
I886395811
sI23491492
I23491492
sI234782444
I234782444
sI211311860
I211311860
sI14121456
I14121456
sI17781673
I17781673
sI15152042
I15152042
sI43824043
I43824043
sI8870632
I8870632
sI14889901
I14889901
sI482603950
I482603950
sI460641202
I460641202
sI497982963
I497982963
sI15602612
I15602612
sI14985374
I14985374
sI38146999
I38146999
sI322687929
I322687929
sI41087930
I41087930
sI2053051
I2053051
sI1280152508
I1280152508
sI20698045
I20698045
sI59166197
I59166197
sI41890754
I41890754
sI56005571
I56005571
sI35525572
I35525572
sI701596368184283137
I701596368184283137
sI160946337
I160946337
sI2678010824
I2678010824
sI282440649
I282440649
sI128265719
I128265719
sI2852594518
I2852594518
sI19616718
I19616718
sI15307727
I15307727
sI1312235000
I1312235000
sI14308310
I14308310
sI376689623
I376689623
sI16225240
I16225240
sI41407450
I41407450
sI94528335
I94528335
sI17904605
I17904605
sI19881931
I19881931
sI96957407
I96957407
sI3681481696
I3681481696
sI497456097
I497456097
sI34999803
I34999803
sI7336932
I7336932
sI153474021
I153474021
sI33985510
I33985510
sI36651857
I36651857
sI35492842
I35492842
sI730305516
I730305516
sI16126957
I16126957
sI702678140288638976
I702678140288638976
sI17093617
I17093617
sI2330776562
I2330776562
sI17667060
I17667060
sI44217125
I44217125
sI14121129
I14121129
sI541042800
I541042800
sI7318032
I7318032
sI3108351
I3108351
sI25154556
I25154556
sI1097028606
I1097028606
sI20714495
I20714495
sI362725086
I362725086
sI145961985
I145961985
sI462205954
I462205954
sI277345249
I277345249
sI31527941
I31527941
sI518992902
I518992902
sI34993160
I34993160
sI21239980
I21239980
sI14540066
I14540066
sI1265726480
I1265726480
sI63861778
I63861778
sI149279764
I149279764
sI63353689
I63353689
sI10769432
I10769432
sI3187121039
I3187121039
sI16154328
I16154328
sI51672094
I51672094
sI18206213
I18206213
sI244298784
I244298784
sI54963121
I54963121
sI74967627
I74967627
sI167695395
I167695395
sI26637348
I26637348
sI2604487717
I2604487717
sI16184358
I16184358
sI182384817
I182384817
sI68490281
I68490281
sI215938090
I215938090
sI342875655
I342875655
sI61240365
I61240365
sI4827186013
I4827186013
sI57095217
I57095217
sI17224754
I17224754
sI29856819
I29856819
sI42112052
I42112052
sI13850422
I13850422
sI61592630
I61592630
sI100654601
I100654601
sI45564482
I45564482
sI1536791610
I1536791610
sI18691131
I18691131
sI35026266
I35026266
sI291927101
I291927101
sI125375550
I125375550
sI134178997
I134178997
sI909448256
I909448256
sI2353954818
I2353954818
sI168096835
I168096835
sI18682950
I18682950
sI371979336
I371979336
sI79008083
I79008083
sI3195507787
I3195507787
sI223728716
I223728716
sI96613453
I96613453
sI15012486
I15012486
sI969211405
I969211405
sI322933840
I322933840
sI14031032
I14031032
sI2588087378
I2588087378
sI939091
I939091
sI21337173
I21337173
sI20837464
I20837464
sI90420314
I90420314
sI20436059
I20436059
sI165499998
I165499998
sI22901855
I22901855
sI7115872
I7115872
sI19207266
I19207266
sI43988067
I43988067
sI14955620
I14955620
sI84929152
I84929152
sI351089767
I351089767
sI19248232
I19248232
sI33248363
I33248363
sI194504279
I194504279
sI268414482
I268414482
sI5653322
I5653322
sI133026928
I133026928
sI50393960
I50393960
sI1869763698
I1869763698
sI1226300947
I1226300947
sI23663732
I23663732
sI2349839479
I2349839479
sI316585080
I316585080
sI230111596
I230111596
sI3028091
I3028091
sI14849149
I14849149
sI18297982
I18297982
sI149382974
I149382974
sI41907332
I41907332
sI111965318
I111965318
sI23000202
I23000202
sI355307031
I355307031
sI75846796
I75846796
sI13455
I13455
sI16039448
I16039448
sI2705819971
I2705819971
sI305755283
I305755283
sI17816420
I17816420
sI25097371
I25097371
sI26455578
I26455578
sI10826912
I10826912
sI14667656
I14667656
sI40137897
I40137897
sI18650282
I18650282
sI7009452
I7009452
sI433910958
I433910958
sI17200303
I17200303
sI260486322
I260486322
sI33846451
I33846451
sI24966325
I24966325
sI265385142
I265385142
sI21959863
I21959863
sI16168121
I16168121
sI13492102
I13492102
sI14097951
I14097951
sI1226171508
I1226171508
sI360445124
I360445124
sI42226885
I42226885
sI18846918
I18846918
sI16454856
I16454856
sI174462153
I174462153
sI246397813
I246397813
sI2165519563
I2165519563
sI76348185
I76348185
sI2956801229
I2956801229
sI604665038
I604665038
sI2821642445
I2821642445
sI2848417055
I2848417055
sI4519121
I4519121
sI15704732
I15704732
sI28120277
I28120277
sI22459606
I22459606
sI52679895
I52679895
sI400438488
I400438488
sI17219108
I17219108
sI3012891866
I3012891866
sI20632796
I20632796
sI11518842
I11518842
sI1372935390
I1372935390
sI17609953
I17609953
sI134234000
I134234000
sI28161251
I28161251
sI39720166
I39720166
sI305944785
I305944785
sI214250731
I214250731
sI16339851
I16339851
sI45970670
I45970670
sI137692029
I137692029
sI17724660
I17724660
sI17003765
I17003765
sI260928758
I260928758
sI117808681
I117808681
sI23860472
I23860472
sI60437756
I60437756
sI201831678
I201831678
sI25073877
I25073877
sI293049600
I293049600
sI23565569
I23565569
sI71636226
I71636226
sI2733266179
I2733266179
sI87340292
I87340292
sI71289546
I71289546
sI23926023
I23926023
sI42871498
I42871498
sI20002057
I20002057
sI115814829
I115814829
sI226578249
I226578249
sI23483663
I23483663
sI116819020
I116819020
sI4119741
I4119741
sI23462787
I23462787
sI26639918
I26639918
sI9688342
I9688342
sI98702615
I98702615
sI430241048
I430241048
sI258892676
I258892676
sI1337898266
I1337898266
sI36874375
I36874375
sI24352029
I24352029
sI18224414
I18224414
sI306692293
I306692293
sI330740614
I330740614
sI363197734
I363197734
sI6273502
I6273502
sI16196915
I16196915
sI32453930
I32453930
sI4712807827
I4712807827
sI1093090866
I1093090866
sI23737647
I23737647
sI266818864
I266818864
sI56570125
I56570125
sI2286622002
I2286622002
sI108445235
I108445235
sI2869663966
I2869663966
sI2281077703
I2281077703
sI44940852
I44940852
sI14096763
I14096763
sI11695422
I11695422
sI2553151
I2553151
sI17184065
I17184065
sI221164866
I221164866
sI189027651
I189027651
sI224865375
I224865375
sI18462022
I18462022
sI117904711
I117904711
sI17003848
I17003848
sI43501355
I43501355
sI255784266
I255784266
sI972651
I972651
sI347600204
I347600204
sI413349197
I413349197
sI36844879
I36844879
sI9860432
I9860432
sI235771218
I235771218
sI35009875
I35009875
sI14136660
I14136660
sI293369174
I293369174
sI253433175
I253433175
sI17798488
I17798488
sI2460267865
I2460267865
sI154367322
I154367322
sI65475932
I65475932
sI242029917
I242029917
sI1042945374
I1042945374
sI162887009
I162887009
sI1881494882
I1881494882
sI45053284
I45053284
sI274634085
I274634085
sI17905002
I17905002
sI78047463
I78047463
sI4880020847
I4880020847
sI18011504
I18011504
sI8287602
I8287602
sI515888500
I515888500
sI16004470
I16004470
sI143647636
I143647636
sI2315965818
I2315965818
sI14562685
I14562685
sI82720126
I82720126
sI14415232
I14415232
sI48534913
I48534913
sI19273963
I19273963
sI11178902
I11178902
sI973428102
I973428102
sI327679553
I327679553
sI14529929
I14529929
sI94705034
I94705034
sI22271373
I22271373
sI14800270
I14800270
sI16225679
I16225679
sI17077648
I17077648
sI1613223313
I1613223313
sI107697554
I107697554
sI586671909
I586671909
sI158848407
I158848407
sI297686425
I297686425
sI17814938
I17814938
sI2993781229
I2993781229
sI22449367
I22449367
sI16242081
I16242081
sI36156834
I36156834
sI15087011
I15087011
sI3224679846
I3224679846
sI45389223
I45389223
sI34362792
I34362792
sI2707657628
I2707657628
sI14300586
I14300586
sI19281323
I19281323
sI30354164
I30354164
sI450082222
I450082222
sI1617278383
I1617278383
sI26053643
I26053643
sI19725644
I19725644
sI130340275
I130340275
sI77583797
I77583797
sI2655458743
I2655458743
sI29595070
I29595070
sI15537599
I15537599
sI108869056
I108869056
sI485966752
I485966752
sI1716901315
I1716901315
sI1465529796
I1465529796
sI592123333
I592123333
sI15357383
I15357383
sI41294568
I41294568
sI170612169
I170612169
sI17814986
I17814986
sI17257931
I17257931
sI145109922
I145109922
sI2938516944
I2938516944
sI759251
I759251
sI97975297
I97975297
sI7315022
I7315022
sI18568663
I18568663
sI731755992
I731755992
sI612308441
I612308441
sI725538266
I725538266
sI17269229
I17269229
sI783837
I783837
sI25654750
I25654750
sI71652831
I71652831
sI18093536
I18093536
sI125777378
I125777378
sI146576867
I146576867
sI108394748
I108394748
sI45085954
I45085954
sI88684012
I88684012
sI15791597
I15791597
sI19789294
I19789294
sI16012783
I16012783
sI25613809
I25613809
sI82695667
I82695667
sI313471485
I313471485
sI599676405
I599676405
sI2741751
I2741751
sI552285690
I552285690
sI23565226
I23565226
sI26195455
I26195455
sI14513666
I14513666
sI41309700
I41309700
sI82312790
I82312790
sI60790278
I60790278
sI190592520
I190592520
sI3021698569
I3021698569
sI1876923914
I1876923914
sI14515799
I14515799
sI816653
I816653
sI316716561
I316716561
sI29881875
I29881875
sI22812182
I22812182
sI248485399
I248485399
sI2468181529
I2468181529
sI190060058
I190060058
sI100562459
I100562459
sI1697986076
I1697986076
sI34680410
I34680410
sI14620190
I14620190
sI1099413025
I1099413025
sI153998882
I153998882
sI73922084
I73922084
sI178664998
I178664998
sI3116291623
I3116291623
sI14112296
I14112296
sI18150955
I18150955
sI987205062
I987205062
sI89086322
I89086322
sI749999664
I749999664
sI24553889
I24553889
sI1468814898
I1468814898
sI44491699
I44491699
sI262108724
I262108724
sI366433845
I366433845
sI4625937974
I4625937974
sI83670586
I83670586
sI836761147
I836761147
sI26637884
I26637884
sI915265088
I915265088
sI13784642
I13784642
sI298120771
I298120771
sI2303915588
I2303915588
sI164771397
I164771397
sI65246790
I65246790
sI1358091847
I1358091847
sI329528905
I329528905
sI66290615
I66290615
sI185488972
I185488972
sI71102590
I71102590
sI170366542
I170366542
sI564039968
I564039968
sI15668818
I15668818
sI33306195
I33306195
sI24032855
I24032855
sI44541211
I44541211
sI250748516
I250748516
sI62862938
I62862938
sI36563215
I36563215
sI63796828
I63796828
sI157619805
I157619805
sI34436704
I34436704
sI18208354
I18208354
sI1559598504
I1559598504
sI568923749
I568923749
sI1534760550
I1534760550
sI23009553
I23009553
sI38679388
I38679388
sI7152572
I7152572
sI22501090
I22501090
sI939938749
I939938749
sI19371632
I19371632
sI40351345
I40351345
sI1069487730
I1069487730
sI145150497
I145150497
sI28513913
I28513913
sI239572602
I239572602
sI2804479611
I2804479611
sI14120576
I14120576
sI28669569
I28669569
sI24112747
I24112747
sI217527944
I217527944
sI41940617
I41940617
sI1711077002
I1711077002
sI75069067
I75069067
sI3075937934
I3075937934
sI40572559
I40572559
sI99014288
I99014288
sI10791192
I10791192
sI34567826
I34567826
sI183976899
I183976899
sI1963374228
I1963374228
sI17241749
I17241749
sI1582642838
I1582642838
sI278821145
I278821145
sI256243352
I256243352
sI24065690
I24065690
sI66369181
I66369181
sI15595167
I15595167
sI6682272
I6682272
sI279433208
I279433208
sI1947301
I1947301
sI55031462
I55031462
sI752801448
I752801448
sI16898332
I16898332
sI15865514
I15865514
sI265884615
I265884615
sI35903151
I35903151
sI77690544
I77690544
sI38401714
I38401714
sI38952563
I38952563
sI2190898868
I2190898868
sI15693493
I15693493
sI66369206
I66369206
sI19199671
I19199671
sI534222686
I534222686
sI20215483
I20215483
sI33437372
I33437372
sI10286782
I10286782
sI1530850933
I1530850933
sI97728194
I97728194
sI103658443
I103658443
sI305985220
I305985220
sI584046277
I584046277
sI3918313159
I3918313159
sI41318089
I41318089
sI25458378
I25458378
sI19617483
I19617483
sI2868328140
I2868328140
sI3311310541
I3311310541
sI165942990
I165942990
sI481031891
I481031891
sI15603412
I15603412
sI20068053
I20068053
sI14579415
I14579415
sI83883736
I83883736
sI126424795
I126424795
sI2608256732
I2608256732
sI27127418
I27127418
sI573918122
I573918122
sI14046943
I14046943
sI211760864
I211760864
sI38737633
I38737633
sI11491042
I11491042
sI379279076
I379279076
sI9300262
I9300262
sI1357903590
I1357903590
sI42079975
I42079975
sI27195114
I27195114
sI185358059
I185358059
sI72310120
I72310120
sI43448047
I43448047
sI67098352
I67098352
sI17946353
I17946353
sI34895602
I34895602
sI2293094131
I2293094131
sI606394100
I606394100
sI80991989
I80991989
sI33732344
I33732344
sI480909050
I480909050
sI21706491
I21706491
sI21182204
I21182204
sI3439736573
I3439736573
sI23561980
I23561980
sI943699712
I943699712
sI469760880
I469760880
sI12056322
I12056322
sI475988505
I475988505
sI221640454
I221640454
sI201144071
I201144071
sI38271276
I38271276
sI110171914
I110171914
sI1980171
I1980171
sI3116191
I3116191
sI14645006
I14645006
sI16045840
I16045840
sI48502545
I48502545
sI27146002
I27146002
sI2569713427
I2569713427
sI68591088
I68591088
sI20625174
I20625174
sI277853976
I277853976
sI44873497
I44873497
sI326391578
I326391578
sI25115556
I25115556
sI2330810142
I2330810142
sI197398149
I197398149
sI19273373
I19273373
sI527742753
I527742753
sI86431522
I86431522
sI11492292
I11492292
sI177697549
I177697549
sI246247046
I246247046
sI288282412
I288282412
sI4152342317
I4152342317
sI17282862
I17282862
sI564000560
I564000560
sI41324168
I41324168
sI23729970
I23729970
sI315438899
I315438899
sI47060789
I47060789
sI19093302
I19093302
sI67051145
I67051145
sI50517818
I50517818
sI296703803
I296703803
sI52352346
I52352346
sI575805246
I575805246
sI102233919
I102233919
sI75159361
I75159361
sI14063426
I14063426
sI13576502
I13576502
sI3004231
I3004231
sI22152321
I22152321
sI19394188
I19394188
sI14669642
I14669642
sI18691915
I18691915
sI896512412
I896512412
sI22345551
I22345551
sI366945735
I366945735
sI105330513
I105330513
sI2916915026
I2916915026
sI32814931
I32814931
sI20748117
I20748117
sI2725771094
I2725771094
sI2621843769
I2621843769
sI145749848
I145749848
sI17802212
I17802212
sI1283733338
I1283733338
sI438630236
I438630236
sI357947229
I357947229
sI177018718
I177018718
sI470676453
I470676453
sI16553826
I16553826
sI16308067
I16308067
sI7144422
I7144422
sI183474022
I183474022
sI507682449
I507682449
sI52925373
I52925373
sI48584555
I48584555
sI18159470
I18159470
sI342275953
I342275953
sI23959413
I23959413
sI21272440
I21272440
sI2963748729
I2963748729
sI15447932
I15447932
sI137843690
I137843690
sI2254354302
I2254354302
sI42866559
I42866559
sI521433
I521433
sI111569216
I111569216
sI248502147
I248502147
sI3150403460
I3150403460
sI818876014390603776
I818876014390603776
sI6141832
I6141832
sI44939146
I44939146
sI20445068
I20445068
sI2768749362
I2768749362
sI28219278
I28219278
sI319215503
I319215503
sI3355326352
I3355326352
sI13012632
I13012632
sI16652611
I16652611
sI26130325
I26130325
sI20928406
I20928406
sI16621209
I16621209
sI2616158532
I2616158532
sI858224539
I858224539
sI911112092
I911112092
sI1450522525
I1450522525
sI410351519
I410351519
sI38107044
I38107044
sI9783622
I9783622
sI30231500
I30231500
sI1290253297
I1290253297
sI24237992
I24237992
sI4970411
I4970411
sI8820652
I8820652
sI16644013
I16644013
sI61863854
I61863854
sI784304
I784304
sI14522289
I14522289
sI83274764
I83274764
sI10876852
I10876852
sI17627061
I17627061
sI391591862
I391591862
sI22763447
I22763447
sI28290738
I28290738
sI41849405
I41849405
sI45930430
I45930430
sI145610688
I145610688
sI1003755457
I1003755457
sI858051
I858051
sI35968964
I35968964
sI110360521
I110360521
sI3071760332
I3071760332
sI21985229
I21985229
sI2786047951
I2786047951
sI14571474
I14571474
sI269883350
I269883350
sI579467224
I579467224
sI138221532
I138221532
sI151943134
I151943134
sI17825445
I17825445
sI162215904
I162215904
sI23353313
I23353313
sI27686882
I27686882
sI174823395
I174823395
sI356825060
I356825060
sI79222757
I79222757
sI118188958
I118188958
sI84686823
I84686823
sI36686040
I36686040
sI302438379
I302438379
sI40544415
I40544415
sI84408303
I84408303
sI35969010
I35969010
sI369031157
I369031157
sI24626969
I24626969
sI126760953
I126760953
sI213104634
I213104634
sI18208763
I18208763
sI2992953341
I2992953341
sI14948350
I14948350
sI18700629
I18700629
sI200801963
I200801963
sI61814792
I61814792
sI14747991
I14747991
sI64844802
I64844802
sI73685006
I73685006
sI32997037
I32997037
sI25589776
I25589776
sI63830033
I63830033
sI183154707
I183154707
sI16742420
I16742420
sI49790638
I49790638
sI15865878
I15865878
sI30767129
I30767129
sI88889370
I88889370
sI184277019
I184277019
sI245610526
I245610526
sI18290719
I18290719
sI201603105
I201603105
sI1869805603
I1869805603
sI17266725
I17266725
sI34879526
I34879526
sI65992743
I65992743
sI549771304
I549771304
sI267386813
I267386813
sI16193578
I16193578
sI29784108
I29784108
sI624285367
I624285367
sI121612637
I121612637
sI237991985
I237991985
sI30865460
I30865460
sI37689397
I37689397
sI32340023
I32340023
sI8861752
I8861752
sI33912889
I33912889
sI9508922
I9508922
sI60721503
I60721503
sI23238716
I23238716
sI841791
I841791
sI118241346
I118241346
sI105216069
I105216069
sI2881689672
I2881689672
sI31869934
I31869934
sI19658826
I19658826
sI164419659
I164419659
sI1097660492
I1097660492
sI194435150
I194435150
sI28162128
I28162128
sI16029780
I16029780
sI10421262
I10421262
sI31264441
I31264441
sI133929049
I133929049
sI442308698
I442308698
sI26548315
I26548315
sI37091421
I37091421
sI43964510
I43964510
sI1302116647
I1302116647
sI32372834
I32372834
sI24434787
I24434787
sI292492354
I292492354
sI24004966
I24004966
sI35534950
I35534950
sI24483943
I24483943
sI51263592
I51263592
sI94162620
I94162620
sI115710058
I115710058
sI119945324
I119945324
sI37206125
I37206125
sI4815829102
I4815829102
sI261437552
I261437552
sI2421463153
I2421463153
sI278394996
I278394996
sI1064206014
I1064206014
sI61716598
I61716598
sI37599351
I37599351
sI39467128
I39467128
sI33601657
I33601657
sI29153403
I29153403
sI35625086
I35625086
sI117282943
I117282943
sI102184540
I102184540
sI549779585
I549779585
sI55385553
I55385553
sI262543492
I262543492
sI1020961
I1020961
sI724704395431186432
I724704395431186432
sI177209025
I177209025
sI29505672
I29505672
sI213827923
I213827923
sI43374731
I43374731
sI59127949
I59127949
sI62898153
I62898153
sI12925072
I12925072
sI30734481
I30734481
sI24026819
I24026819
sI3240470488
I3240470488
sI238319766
I238319766
sI262248599
I262248599
sI384546969
I384546969
sI18823322
I18823322
sI837276313
I837276313
sI75494051
I75494051
sI23752389
I23752389
sI2739902624
I2739902624
sI104675696
I104675696
sI791509154
I791509154
sI385792163
I385792163
sI824473943931293697
I824473943931293697
sI575658149
I575658149
sI1480521894
I1480521894
sI50811932
I50811932
sI14061255
I14061255
sI2400942252
I2400942252
sI63129970
I63129970
sI2646997166
I2646997166
sI28047535
I28047535
sI26729334
I26729334
sI407812273
I407812273
sI310630578
I310630578
sI519076019
I519076019
sI469070878
I469070878
sI489129741
I489129741
sI18767561
I18767561
sI19658936
I19658936
sI20109497
I20109497
sI2363898042
I2363898042
sI22755516
I22755516
sI603060414
I603060414
sI34976800
I34976800
sI2349251
I2349251
sI15562948
I15562948
sI44480709
I44480709
sI275675334
I275675334
sI378848483
I378848483
sI1677170888
I1677170888
sI39312371
I39312371
sI264108236
I264108236
sI254138573
I254138573
sI1394399438
I1394399438
sI61853389
I61853389
sI1202469073
I1202469073
sI111092283
I111092283
sI7321812
I7321812
sI21888718
I21888718
sI16248319
I16248319
sI38140121
I38140121
sI132069595
I132069595
sI202314822
I202314822
sI22337914
I22337914
sI20076766
I20076766
sI18215973
I18215973
sI17176391
I17176391
sI156055778
I156055778
sI339278051
I339278051
sI10957862
I10957862
sI42831569
I42831569
sI14072040
I14072040
sI817386
I817386
sI200055019
I200055019
sI68999404
I68999404
sI16161005
I16161005
sI14660636
I14660636
sI82647279
I82647279
sI21879024
I21879024
sI369375473
I369375473
sI72087934
I72087934
sI2155649270
I2155649270
sI1264957687
I1264957687
sI1102977272
I1102977272
sI26966268
I26966268
sI17720438
I17720438
sI5511422
I5511422
sI22411519
I22411519
sI39164161
I39164161
sI126146818
I126146818
sI122004523
I122004523
sI87374085
I87374085
sI2363128070
I2363128070
sI25942280
I25942280
sI43243785
I43243785
sI186112267
I186112267
sI74340620
I74340620
sI15579405
I15579405
sI2569261
I2569261
sI68499728
I68499728
sI962148625
I962148625
sI564595075
I564595075
sI17053972
I17053972
sI71039254
I71039254
sI143696465
I143696465
sI8845592
I8845592
sI1129945369
I1129945369
sI277318549
I277318549
sI286054684
I286054684
sI43440414
I43440414
sI1964325151
I1964325151
sI535812385
I535812385
sI14110427
I14110427
sI17905956
I17905956
sI1088338213
I1088338213
sI407066918
I407066918
sI459913511
I459913511
sI2588596520
I2588596520
sI1933042237
I1933042237
sI250886444
I250886444
sI26211378
I26211378
sI109377839
I109377839
sI17774897
I17774897
sI4905113907
I4905113907
sI15081182
I15081182
sI20289929
I20289929
sI540195128
I540195128
sI65508404
I65508404
sI21346619
I21346619
sI420903229
I420903229
sI14293310
I14293310
sI1263506485
I1263506485
sI24099136
I24099136
sI14634720
I14634720
sI51173699
I51173699
sI18708804
I18708804
sI73200694
I73200694
sI32143686
I32143686
sI16244449
I16244449
sI1537567116
I1537567116
sI163420490
I163420490
sI32329854
I32329854
sI134019405
I134019405
sI600193358
I600193358
sI24099151
I24099151
sI11442512
I11442512
sI327574584
I327574584
sI743763
I743763
sI16095572
I16095572
sI158554453
I158554453
sI44300630
I44300630
sI360159578
I360159578
sI177150299
I177150299
sI288962909
I288962909
sI35510622
I35510622
sI2573572447
I2573572447
sI19372385
I19372385
sI278778939
I278778939
sI3311907872
I3311907872
sI57652284
I57652284
sI14530923
I14530923
sI57530732
I57530732
sI41884013
I41884013
sI8329582
I8329582
sI156039536
I156039536
sI108845426
I108845426
sI20339060
I20339060
sI5411902
I5411902
sI539487977
I539487977
sI1568663977
I1568663977
sI18536826
I18536826
sI17629860
I17629860
sI1411717500
I1411717500
sI470686077
I470686077
sI278780286
I278780286
sI743856512
I743856512
sI302404672
I302404672
sI113047940
I113047940
sI147298710
I147298710
sI16461824
I16461824
sI35636289
I35636289
sI23755145
I23755145
sI2479878103
I2479878103
sI101947788
I101947788
sI16733250
I16733250
sI24025488
I24025488
sI1606621585
I1606621585
sI16669075
I16669075
sI291936660
I291936660
sI17602965
I17602965
sI88758678
I88758678
sI31398295
I31398295
sI7215512
I7215512
sI1584200089
I1584200089
sI27042513
I27042513
sI20360943
I20360943
sI2652273055
I2652273055
sI2331459312
I2331459312
sI135633314
I135633314
sI14342564
I14342564
sI48069029
I48069029
sI19274150
I19274150
sI25967016
I25967016
sI23435691
I23435691
sI8362412
I8362412
sI3881391
I3881391
sI59496880
I59496880
sI7304782
I7304782
sI258943116
I258943116
sI13982132
I13982132
sI141535646
I141535646
sI2209757624
I2209757624
sI19175865
I19175865
sI17242554
I17242554
sI95385719
I95385719
sI21887420
I21887420
sI1426560074
I1426560074
sI3301882302
I3301882302
sI318921151
I318921151
sI19159489
I19159489
sI20863428
I20863428
sI128637382
I128637382
sI2371226017
I2371226017
sI363256264
I363256264
sI1292260428
I1292260428
sI40720843
I40720843
sI65477068
I65477068
sI310090189
I310090189
sI1730943438
I1730943438
sI278860877
I278860877
sI18676177
I18676177
sI499063252
I499063252
sI389896661
I389896661
sI23681494
I23681494
sI1348401625
I1348401625
sI47528410
I47528410
sI91567183
I91567183
sI29350364
I29350364
sI52238813
I52238813
sI28506590
I28506590
sI2286189025
I2286189025
sI28498402
I28498402
sI1488423301
I1488423301
sI32758249
I32758249
sI31947242
I31947242
sI17471979
I17471979
sI35453420
I35453420
sI3193903597
I3193903597
sI20609518
I20609518
sI65247727
I65247727
sI18242032
I18242032
sI713456113
I713456113
sI33405426
I33405426
sI35114229
I35114229
sI81074676
I81074676
sI1440537078
I1440537078
sI15165865
I15165865
sI305461752
I305461752
sI14606079
I14606079
sI35002876
I35002876
sI159578621
I159578621
sI1223473662
I1223473662
sI554088959
I554088959
sI39565824
I39565824
sI333893376
I333893376
sI52296107
I52296107
sI830355972
I830355972
sI623827461
I623827461
sI247871422
I247871422
sI965131
I965131
sI2277333516
I2277333516
sI18110989
I18110989
sI23566862
I23566862
sI124566033
I124566033
sI84245010
I84245010
sI15677579
I15677579
sI85371671
I85371671
sI80094297
I80094297
sI2436250136
I2436250136
sI477503236
I477503236
sI21330459
I21330459
sI30317085
I30317085
sI2305792542
I2305792542
sI106813983
I106813983
sI41015840
I41015840
sI2250013218
I2250013218
sI161372707
I161372707
sI129694246
I129694246
sI57031207
I57031207
sI3240573487
I3240573487
sI4766279983
I4766279983
sI836295217
I836295217
sI16718387
I16718387
sI5388852
I5388852
sI504859372
I504859372
sI571202103
I571202103
sI338074168
I338074168
sI21363124
I21363124
sI257243706
I257243706
sI22467679
I22467679
sI53221950
I53221950
sI39713345
I39713345
sI4838040415
I4838040415
sI378919491
I378919491
sI3279903302
I3279903302
sI4267082849
I4267082849
sI6781512
I6781512
sI26141791
I26141791
sI395598413
I395598413
sI15175437
I15175437
sI29293136
I29293136
sI1034386004
I1034386004
sI15923797
I15923797
sI11270742
I11270742
sI182090327
I182090327
sI1932501042
I1932501042
sI132602457
I132602457
sI3393935962
I3393935962
sI277761807
I277761807
sI116362700
I116362700
sI19380829
I19380829
sI91478624
I91478624
sI340580963
I340580963
sI221230182
I221230182
sI24640102
I24640102
sI16611945
I16611945
sI19559527
I19559527
sI81678098
I81678098
sI35773039
I35773039
sI2573433456
I2573433456
sI20322929
I20322929
sI40295027
I40295027
sI14514804
I14514804
sI47528565
I47528565
sI637180534
I637180534
sI1337629303
I1337629303
sI65158932
I65158932
sI26195099
I26195099
sI507886203
I507886203
sI29088380
I29088380
sI24566398
I24566398
sI20314752
I20314752
sI2313141091
I2313141091
sI14113411
I14113411
sI77314692
I77314692
sI327058009
I327058009
sI19028615
I19028615
sI1242471048
I1242471048
sI23108233
I23108233
sI316632855
I316632855
sI161110669
I161110669
sI438622863
I438622863
sI233732754
I233732754
sI18793052
I18793052
sI19383061
I19383061
sI70556309
I70556309
sI14621124
I14621124
sI19331738
I19331738
sI23009949
I23009949
sI80206496
I80206496
sI15707842
I15707842
sI17037986
I17037986
sI36551331
I36551331
sI14834340
I14834340
sI533478055
I533478055
sI12819112
I12819112
sI16554666
I16554666
sI4602311
I4602311
sI48650924
I48650924
sI45171826
I45171826
sI87366318
I87366318
sI199924401
I199924401
sI2529971
I2529971
sI14145032
I14145032
sI17178161
I17178161
sI2707806902
I2707806902
sI71294756
I71294756
sI38267947
I38267947
sI9245812
I9245812
sI34863802
I34863802
sI59636413
I59636413
sI17267391
I17267391
sI33168067
I33168067
sI34546770
I34546770
sI351157801
I351157801
sI43498182
I43498182
sI16554695
I16554695
sI139909832
I139909832
sI23065354
I23065354
sI78084813
I78084813
sI24110200
I24110200
sI101866195
I101866195
sI32135630
I32135630
sI14555862
I14555862
sI15678167
I15678167
sI1966987992
I1966987992
sI15522521
I15522521
sI5733082
I5733082
sI242727646
I242727646
sI37993184
I37993184
sI61712848
I61712848
sI6519522
I6519522
sI255833211
I255833211
sI874437348
I874437348
sI29842091
I29842091
sI15628753
I15628753
sI19110632
I19110632
sI49175275
I49175275
sI625793774
I625793774
sI14677117
I14677117
sI98425584
I98425584
sI308203304
I308203304
sI443996914
I443996914
sI146569971
I146569971
sI65411830
I65411830
sI18501417
I18501417
sI322198265
I322198265
sI17242874
I17242874
sI469727701
I469727701
sI137181955
I137181955
sI134937348
I134937348
sI110590422
I110590422
sI753738067241033728
I753738067241033728
sI109347969
I109347969
sI14629640
I14629640
sI163475244
I163475244
sI365603329
I365603329
sI20793816
I20793816
sI339262226
I339262226
sI29285140
I29285140
sI103955222
I103955222
sI867143395
I867143395
sI88849176
I88849176
sI61045529
I61045529
sI14400283
I14400283
sI76495644
I76495644
sI344930778
I344930778
sI140204830
I140204830
sI1540354783
I1540354783
sI809760
I809760
sI95371056
I95371056
sI55221027
I55221027
sI21986086
I21986086
sI937843496
I937843496
sI3021611
I3021611
sI156465965
I156465965
sI318651182
I318651182
sI15661871
I15661871
sI22518576
I22518576
sI24419121
I24419121
sI883309362
I883309362
sI1262099252
I1262099252
sI26622430
I26622430
sI517419568
I517419568
sI224827646
I224827646
sI174168891
I174168891
sI118856508
I118856508
sI2247580478
I2247580478
sI334990258
I334990258
sI361716544
I361716544
sI130997057
I130997057
sI161913667
I161913667
sI487897925
I487897925
sI21936609
I21936609
sI9493322
I9493322
sI15080268
I15080268
sI226892621
I226892621
sI16600140
I16600140
sI15162193
I15162193
sI1124567114
I1124567114
sI14154581
I14154581
sI16743256
I16743256
sI129891162
I129891162
sI20536157
I20536157
sI32979807
I32979807
sI297163618
I297163618
sI232676195
I232676195
sI15907684
I15907684
sI65272677
I65272677
sI15465318
I15465318
sI109443943
I109443943
sI1439570792
I1439570792
sI174480233
I174480233
sI64896013
I64896013
sI1541926717
I1541926717
sI35044208
I35044208
sI133093395
I133093395
sI159652724
I159652724
sI124714814
I124714814
sI14664794
I14664794
sI92674938
I92674938
sI66427771
I66427771
sI22895484
I22895484
sI23387006
I23387006
sI732062907890962432
I732062907890962432
sI14318464
I14318464
sI544651755
I544651755
sI54745989
I54745989
sI116857734
I116857734
sI14097287
I14097287
sI14605192
I14605192
sI267385739
I267385739
sI24140685
I24140685
sI558025197
I558025197
sI309271440
I309271440
sI593370001
I593370001
sI25951125
I25951125
sI110304152
I110304152
sI9411482
I9411482
sI61334397
I61334397
sI410473627
I410473627
sI407231390
I407231390
sI114047903
I114047903
sI110541296
I110541296
sI30350242
I30350242
sI14424995
I14424995
sI18185124
I18185124
sI1213560606
I1213560606
sI17447849
I17447849
sI496481642
I496481642
sI7125932
I7125932
sI9386482
I9386482
sI1613700014
I1613700014
sI3290364847
I3290364847
sI20618160
I20618160
sI41935245
I41935245
sI170105778
I170105778
sI46627763
I46627763
sI947076020
I947076020
sI1420796984
I1420796984
sI104389564
I104389564
sI37108674
I37108674
sI30261067
I30261067
sI21846980
I21846980
sI62290422
I62290422
sI170393291
I170393291
sI3000906361
I3000906361
sI21945288
I21945288
sI18586570
I18586570
sI2956876747
I2956876747
sI5520332
I5520332
sI15194262
I15194262
sI131546062
I131546062
sI27778893
I27778893
sI486464464
I486464464
sI14637560
I14637560
sI48470995
I48470995
sI98982868
I98982868
sI1632082902
I1632082902
sI1360436184
I1360436184
sI274119641
I274119641
sI24779739
I24779739
sI28646364
I28646364
sI67435486
I67435486
sI1320844255
I1320844255
sI21421024
I21421024
sI2752306146
I2752306146
sI7259302
I7259302
sI42793960
I42793960
sI194280430
I194280430
sI237845487
I237845487
sI14097392
I14097392
sI335617009
I335617009
sI69180402
I69180402
sI620658210
I620658210
sI263470068
I263470068
sI145324542
I145324542
sI1240449552
I1240449552
sI3005193140
I3005193140
sI241679357
I241679357
sI70588928
I70588928
sI903224322
I903224322
sI43514883
I43514883
sI436542468
I436542468
sI14056454
I14056454
sI219380743
I219380743
sI23411720
I23411720
sI343890955
I343890955
sI253167239
I253167239
sI53853197
I53853197
sI2189925392
I2189925392
sI2223835651
I2223835651
sI22977557
I22977557
sI322857476
I322857476
sI22961178
I22961178
sI4455451
I4455451
sI8797212
I8797212
sI62902439
I62902439
sI20937759
I20937759
sI39140384
I39140384
sI65504432
I65504432
sI4012014626
I4012014626
sI28703779
I28703779
sI823565852922576897
I823565852922576897
sI27466789
I27466789
sI92186819
I92186819
sI1068481578
I1068481578
sI29146155
I29146155
sI70878386
I70878386
sI17595439
I17595439
sI2424113672
I2424113672
sI361012274
I361012274
sI2795422567
I2795422567
sI20192308
I20192308
sI27171893
I27171893
sI10910132
I10910132
sI179685897
I179685897
sI2369633336
I2369633336
sI21421113
I21421113
sI14629948
I14629948
sI30145597
I30145597
sI15080510
I15080510
sI74791999
I74791999
sI16686144
I16686144
sI2444516418
I2444516418
sI22817291
I22817291
sI26188868
I26188868
sI27260086
I27260086
sI131497030
I131497030
sI213670984
I213670984
sI853531148
I853531148
sI122807479
I122807479
sI24058956
I24058956
sI16191793
I16191793
sI87783949
I87783949
sI455506402
I455506402
sI16129106
I16129106
sI171301972
I171301972
sI14589016
I14589016
sI61602905
I61602905
sI11902042
I11902042
sI46537819
I46537819
sI100113623
I100113623
sI248495200
I248495200
sI73181712
I73181712
sI369835106
I369835106
sI51649635
I51649635
sI973582872
I973582872
sI271225172
I271225172
sI4700568681
I4700568681
sI32767185
I32767185
sI10394732
I10394732
sI228908141
I228908141
sI21175406
I21175406
sI40574063
I40574063
sI460708976
I460708976
sI41000049
I41000049
sI70220914
I70220914
sI132021364
I132021364
sI1968569461
I1968569461
sI247815588
I247815588
sI17469289
I17469289
sI186776697
I186776697
sI19809471
I19809471
sI268115068
I268115068
sI327035389
I327035389
sI44039298
I44039298
sI1733065860
I1733065860
sI310615174
I310615174
sI223640712
I223640712
sI19775340
I19775340
sI23796877
I23796877
sI138661741
I138661741
sI1966365842
I1966365842
sI62898773
I62898773
sI3015694181
I3015694181
sI18819574
I18819574
sI19397785
I19397785
sI5741722
I5741722
sI3403152539
I3403152539
sI13393052
I13393052
sI26098846
I26098846
sI78081806
I78081806
sI17718433
I17718433
sI37600419
I37600419
sI9624742
I9624742
sI27245742
I27245742
sI15015080
I15015080
sI407133353
I407133353
sI199187627
I199187627
sI373783726
I373783726
sI308721230
I308721230
sI320822449
I320822449
sI15441074
I15441074
sI40755059
I40755059
sI29867189
I29867189
sI14140617
I14140617
sI2995600568
I2995600568
sI802356409
I802356409
sI96836797
I96836797
sI16030910
I16030910
sI161963199
I161963199
sI810941636
I810941636
sI478502086
I478502086
sI582296266
I582296266
sI15154378
I15154378
sI22536055
I22536055
sI260046029
I260046029
sI108698830
I108698830
sI18963663
I18963663
sI35019984
I35019984
sI2890961
I2890961
sI138932683
I138932683
sI42125035
I42125035
sI143463630
I143463630
sI13524182
I13524182
sI400956631
I400956631
sI16891096
I16891096
sI2458893086
I2458893086
sI840801499
I840801499
sI92560604
I92560604
sI30911195
I30911195
sI16161708
I16161708
sI49618143
I49618143
sI15580384
I15580384
sI270416422
I270416422
sI18734310
I18734310
sI317631500
I317631500
sI2335562984
I2335562984
sI19881193
I19881193
sI9870572
I9870572
sI82282572
I82282572
sI154369264
I154369264
sI15170803
I15170803
sI2790735092
I2790735092
sI331173103
I331173103
sI98434298
I98434298
sI2609115007
I2609115007
sI2355534576
I2355534576
sI33447166
I33447166
sI2306228096
I2306228096
sI253686998
I253686998
sI538877191
I538877191
sI288767243
I288767243
sI25659535
I25659535
sI18783501
I18783501
sI10222862
I10222862
sI47906064
I47906064
sI27032850
I27032850
sI16671972
I16671972
sI609565975
I609565975
sI13275012
I13275012
sI334413082
I334413082
sI23025002
I23025002
sI122412318
I122412318
sI316923168
I316923168
sI366289613
I366289613
sI14517467
I14517467
sI481647908
I481647908
sI18177317
I18177317
sI15473958
I15473958
sI2765882588
I2765882588
sI128352135
I128352135
sI952597807
I952597807
sI54648113
I54648113
sI1887329586
I1887329586
sI115186995
I115186995
sI548699444
I548699444
sI309204190
I309204190
sI35970359
I35970359
sI17194296
I17194296
sI14654777
I14654777
sI26565946
I26565946
sI396787005
I396787005
sI112540990
I112540990
sI14417215
I14417215
sI177028417
I177028417
sI1301601602
I1301601602
sI15135958
I15135958
sI16632374
I16632374
sI31300934
I31300934
sI301712172
I301712172
sI23035208
I23035208
sI21380426
I21380426
sI109337931
I109337931
sI8453452
I8453452
sI276716878
I276716878
sI1515094368
I1515094368
sI135789579
I135789579
sI94143715
I94143715
sI454437376
I454437376
sI409394519
I409394519
sI20479321
I20479321
sI24403290
I24403290
sI2815491420
I2815491420
sI15113565
I15113565
sI113130846
I113130846
sI14482783
I14482783
sI254590305
I254590305
sI22650211
I22650211
sI151682405
I151682405
sI23756134
I23756134
sI125644689
I125644689
sI44899688
I44899688
sI23584105
I23584105
sI937933616
I937933616
sI14104104
I14104104
sI426159377
I426159377
sI728108946
I728108946
sI48620776
I48620776
sI104390002
I104390002
sI22330739
I22330739
sI886938996
I886938996
sI70589813
I70589813
sI298302838
I298302838
sI3352251879
I3352251879
sI2329066872
I2329066872
sI1881030548
I1881030548
sI2704801147
I2704801147
sI2492456316
I2492456316
sI158129535
I158129535
sI259382657
I259382657
sI545779763
I545779763
sI19846379
I19846379
sI512654724
I512654724
sI256621958
I256621958
sI418212417
I418212417
sI16711048
I16711048
sI18128265
I18128265
sI84909450
I84909450
sI142901143
I142901143
sI15010370
I15010370
sI197131662
I197131662
sI23903631
I23903631
sI19045777
I19045777
sI278756754
I278756754
sI14572947
I14572947
sI94694412
I94694412
sI18734485
I18734485
sI1004969366
I1004969366
sI17817315
I17817315
sI17563032
I17563032
sI1327906201
I1327906201
sI366181786
I366181786
sI38608283
I38608283
sI2334552150
I2334552150
sI1318301
I1318301
sI2307880021
I2307880021
sI521977247
I521977247
sI3554721
I3554721
sI16555428
I16555428
sI57844977
I57844977
sI20774312
I20774312
sI20757930
I20757930
sI14669951
I14669951
sI15007149
I15007149
sI1380851118
I1380851118
sI214736304
I214736304
sI57580977
I57580977
sI3179781877
I3179781877
sI15728058
I15728058
sI28665877
I28665877
sI28474813
I28474813
sI2728210771
I2728210771
sI875006101
I875006101
sI39288259
I39288259
sI182885828
I182885828
sI24051141
I24051141
sI205381066
I205381066
sI15103223
I15103223
sI76824013
I76824013
sI21831118
I21831118
sI48380493
I48380493
sI2931637712
I2931637712
sI39714257
I39714257
sI2216041938
I2216041938
sI857141155
I857141155
sI2887917012
I2887917012
sI386263630
I386263630
sI16121302
I16121302
sI256720343
I256720343
sI65494488
I65494488
sI61861181
I61861181
sI1542274525
I1542274525
sI31653344
I31653344
sI1979039203
I1979039203
sI330595812
I330595812
sI1219579814
I1219579814
sI27223950
I27223950
sI413498855
I413498855
sI17291393
I17291393
sI16211434
I16211434
sI1367531
I1367531
sI53263853
I53263853
sI16727535
I16727535
sI12246512
I12246512
sI21454322
I21454322
sI511499763
I511499763
sI23564573
I23564573
sI16014840
I16014840
sI16624212
I16624212
sI16727547
I16727547
sI898309628
I898309628
sI89538045
I89538045
sI182869502
I182869502
sI16524544
I16524544
sI4511233813
I4511233813
sI23518723
I23518723
sI1375976022
I1375976022
sI17297668
I17297668
sI5225991
I5225991
sI468991497
I468991497
sI15153052
I15153052
sI86915671
I86915671
sI15351308
I15351308
sI299081229
I299081229
sI201686543
I201686543
sI1711266392
I1711266392
sI52318852
I52318852
sI42712551
I42712551
sI14073364
I14073364
sI14515734
I14515734
sI256138776
I256138776
sI36060697
I36060697
sI14532122
I14532122
sI39296539
I39296539
sI41729564
I41729564
sI18291290
I18291290
sI17636894
I17636894
sI33660447
I33660447
sI15123865
I15123865
sI19808176
I19808176
sI18694861
I18694861
sI31276579
I31276579
sI102850084
I102850084
sI23027237
I23027237
sI524101128
I524101128
sI47005225
I47005225
sI2342370858
I2342370858
sI1970435335
I1970435335
sI252124716
I252124716
sI27247847
I27247847
sI17038894
I17038894
sI359661104
I359661104
sI16667912
I16667912
sI94682674
I94682674
sI21397043
I21397043
sI43859508
I43859508
sI353789193
I353789193
sI14581306
I14581306
sI400524509
I400524509
sI14483008
I14483008
sI15875649
I15875649
sI186981954
I186981954
sI570637896
I570637896
sI264552375
I264552375
sI12926542
I12926542
sI29777489
I29777489
sI16703058
I16703058
sI31448660
I31448660
sI2863488598
I2863488598
sI28065367
I28065367
sI102030939
I102030939
sI61734492
I61734492
sI14577594
I14577594
sI18562654
I18562654
sI14130784
I14130784
sI104636001
I104636001
sI23109219
I23109219
sI1976841
I1976841
sI17899109
I17899109
sI21929575
I21929575
sI230006378
I230006378
sI5185131
I5185131
sI19742653
I19742653
sI245988976
I245988976
sI27098737
I27098737
sI16186995
I16186995
sI186617790
I186617790
sI15679097
I15679097
sI18795114
I18795114
sI16645758
I16645758
sI14573183
I14573183
sI4667591756
I4667591756
sI18775684
I18775684
sI95871473
I95871473
sI22789766
I22789766
sI1700245441
I1700245441
sI2790620808
I2790620808
sI88063625
I88063625
sI23821963
I23821963
sI20405901
I20405901
sI2547203726
I2547203726
sI26688109
I26688109
sI607507736
I607507736
sI4731035235
I4731035235
sI282222231
I282222231
sI4013721
I4013721
sI20964634
I20964634
sI97516144
I97516144
sI30178979
I30178979
sI1597832868
I1597832868
sI135249573
I135249573
sI403244261
I403244261
sI82689705
I82689705
sI322281131
I322281131
sI373169836
I373169836
sI202858157
I202858157
sI455401134
I455401134
sI3119988399
I3119988399
sI546274993
I546274993
sI101997464
I101997464
sI823893685
I823893685
sI14655297
I14655297
sI16457400
I16457400
sI18808506
I18808506
sI31170235
I31170235
sI77348540
I77348540
sI69009086
I69009086
sI847642303
I847642303
sI19119809
I19119809
sI137352522
I137352522
sI15597251
I15597251
sI3382981
I3382981
sI24420040
I24420040
sI309411529
I309411529
sI15134782
I15134782
sI232521422
I232521422
sI323985357
I323985357
sI45055696
I45055696
sI1705885393
I1705885393
sI45440724
I45440724
sI455024343
I455024343
sI615284440
I615284440
sI321027801
I321027801
sI1957600986
I1957600986
sI16817883
I16817883
sI2885020282
I2885020282
sI5988062
I5988062
sI227483360
I227483360
sI774096
I774096
sI7159522
I7159522
sI46488929
I46488929
sI371007204
I371007204
sI18783973
I18783973
sI1283899112
I1283899112
sI1858517628
I1858517628
sI49798890
I49798890
sI2463620844
I2463620844
sI11976432
I11976432
sI2417917681
I2417917681
sI95903474
I95903474
sI1263845108
I1263845108
sI2732941045
I2732941045
sI518995702
I518995702
sI19103481
I19103481
sI597622522
I597622522
sI20964146
I20964146
sI97353468
I97353468
sI59416317
I59416317
sI532643582
I532643582
sI442331093
I442331093
sI1954945664
I1954945664
sI1705508610
I1705508610
sI26191147
I26191147
sI10174212
I10174212
sI217677574
I217677574
sI126189319
I126189319
sI2257927944
I2257927944
sI20414217
I20414217
sI46038999
I46038999
sI20834946
I20834946
sI2600419086
I2600419086
sI317636367
I317636367
sI177487632
I177487632
sI17047313
I17047313
sI1726136082
I1726136082
sI68468499
I68468499
sI17981204
I17981204
sI2359820053
I2359820053
sI540253975
I540253975
sI125280024
I125280024
sI17635972
I17635972
sI5746452
I5746452
sI468702511
I468702511
sI565100316
I565100316
sI241032991
I241032991
sI17989408
I17989408
sI298706224
I298706224
sI78429986
I78429986
sI39210971
I39210971
sI47456036
I47456036
sI39837477
I39837477
sI56540027
I56540027
sI20422438
I20422438
sI237387560
I237387560
sI16628658
I16628658
sI2820800300
I2820800300
sI37569842
I37569842
sI783086895349702656
I783086895349702656
sI14933807
I14933807
sI16031536
I16031536
sI2897026866
I2897026866
sI42794803
I42794803
sI87007478
I87007478
sI2745692126
I2745692126
sI352680585
I352680585
sI28287198
I28287198
sI33251130
I33251130
sI97312571
I97312571
sI11009852
I11009852
sI3161890621
I3161890621
sI17178430
I17178430
sI999551792
I999551792
sI19799873
I19799873
sI1338302274
I1338302274
sI282042180
I282042180
sI1201661238
I1201661238
sI14671915
I14671915
sI3290070855
I3290070855
sI42884936
I42884936
sI74391369
I74391369
sI161801527
I161801527
sI824053886
I824053886
sI997333645
I997333645
sI9207632
I9207632
sI915906390
I915906390
sI586136477
I586136477
sI14950232
I14950232
sI22379151
I22379151
sI3154057086
I3154057086
sI1724360040
I1724360040
sI15859554
I15859554
sI16246929
I16246929
sI69459812
I69459812
sI413452945
I413452945
sI469704554
I469704554
sI352550941
I352550941
sI981441170
I981441170
sI29286254
I29286254
sI278691695
I278691695
sI28221296
I28221296
sI51814257
I51814257
sI426303347
I426303347
sI395018100
I395018100
sI2836463543
I2836463543
sI175624200
I175624200
sI36020201
I36020201
sI32504468
I32504468
sI77588499
I77588499
sI30909461
I30909461
sI14581631
I14581631
sI16129920
I16129920
sI26967937
I26967937
sI15155074
I15155074
sI18345963
I18345963
sI20021125
I20021125
sI90959872
I90959872
sI42296641
I42296641
sI14630892
I14630892
sI30072714
I30072714
sI32980875
I32980875
sI15194255
I15194255
sI17790274
I17790274
sI2984509328
I2984509328
sI30810001
I30810001
sI37142418
I37142418
sI14505283
I14505283
sI72597396
I72597396
sI18859634
I18859634
sI2253821635
I2253821635
sI1294231
I1294231
sI3230131843
I3230131843
sI19767193
I19767193
sI1615626138
I1615626138
sI764325974
I764325974
sI16075418
I16075418
sI106971040
I106971040
sI230104993
I230104993
sI2942140326
I2942140326
sI807780264
I807780264
sI21168043
I21168043
sI19341622
I19341622
sI78528430
I78528430
sI52551600
I52551600
sI38920113
I38920113
sI18119242
I18119242
sI56541108
I56541108
sI8989342
I8989342
sI216776631
I216776631
sI2428796856
I2428796856
sI16506868
I16506868
sI3085835595
I3085835595
sI79167420
I79167420
sI22454205
I22454205
sI31456802
I31456802
sI15938891
I15938891
sI14835652
I14835652
sI78094905
I78094905
sI189362428
I189362428
sI94191559
I94191559
sI2345443272
I2345443272
sI92094409
I92094409
sI148840394
I148840394
sI460758987
I460758987
sI161857484
I161857484
sI20283341
I20283341
sI1245599053
I1245599053
sI352673744
I352673744
sI398897144
I398897144
sI378350715
I378350715
sI15458260
I15458260
sI16243405
I16243405
sI120283095
I120283095
sI19210200
I19210200
sI281885815
I281885815
sI217432028
I217432028
sI15433693
I15433693
sI2149834718
I2149834718
sI1169678304
I1169678304
sI153051105
I153051105
sI69728759
I69728759
sI454488059
I454488059
sI39211122
I39211122
sI23478246
I23478246
sI2279546856
I2279546856
sI321716201
I321716201
sI24600554
I24600554
sI2379700903
I2379700903
sI110559212
I110559212
sI50057228
I50057228
sI16621551
I16621551
sI19308529
I19308529
sI235851038
I235851038
sI16187379
I16187379
sI15040500
I15040500
sI14499829
I14499829
sI115853993
I115853993
sI132415480
I132415480
sI75440121
I75440121
sI53223420
I53223420
sI36528126
I36528126
sa.